0001   0000             ; Disassembly of the Lambda 8300 ROM
0002   0000             ; Dave Curran 2026-06-12
0003   0000             
0004   0000             ; Where functions are identical to ZX81, only the function names are commented
0005   0000             ; Refer to the ZX81 assembly listing by Geoff Wearmouth for further comments
0006   0000             ; https://web.archive.org/web/20111004151617/http://www.wearmouth.demon.co.uk/zx81.htm
0007   0000             
0008   0000             ; assemble with TASM
0009   0000             ; TASM.EXE -t80 -fff -b Lambda8300.asm Lambda8300.bin
0010   0000             
0011   0000             ; Z80 @ 3.25MHz
0012   0000             ; 8K of ROM
0013   0000             ; 2K of RAM
0014   0000             ; expandable to 32k of RAM
0015   0000             
0016   0000             ; Memory Map
0017   0000             ; $0000-1FFF        - ROM
0018   0000             ; $2000-3FFF        - Option ROM
0019   0000             ; $4000     ERR.NR  - Current report code -1
0020   0000             ; $4001     FLAGS   - Some flags
0021   0000             ; $4002/03  ERR.SP  - Address of top of GOSUB stack
0022   0000             ; $4004/05  RAMTOP  - Address of reserved area
0023   0000             ; $4006     MODE    - Cursor mode
0024   0000             ; $4007/08  PPC     - Line number being executed
0025   0000             ; $4009     VERSN   - Version = 0
0026   0000             ; $400A/0B  NXTLIN  - Address of next line to be executed (ZX81 has E.PPC here)
0027   0000             ; $400C/0D  PRGRM   - Start of user program = $4396 (ZX81 has DFILE here)
0028   0000             ; $400E/0F  DF.CC   - Display file current character
0029   0000             ; $4010/11  VARS    - Start of variable area
0030   0000             ; $4012/13  DEST    - Address of variable being assigned
0031   0000             ; $4014/15  E.LINE  - Address of edit line
0032   0000             ; $4016/17  CH.ADD  - Next character to interpret
0033   0000             ; $4018/19  X.PTR   - Addess of character before syntax error
0034   0000             ; $401A/1B  STKBOT  - Address of calculator stack
0035   0000             ; $401C/1D  STKEND  - End of calculator stack
0036   0000             ; $401E     BREG    - Floating point B register
0037   0000             ; $401F/20  MEM     - Address of calc memory area = MEMBOT
0038   0000             ; $4021     TEMPO   - Setting of music tempo (was SPARE1)
0039   0000             ; $4022     DF.SZ   - Size of editor part of screen
0040   0000             ; $4023/24  S.TOP   - Line number at top of screen
0041   0000             ; $4025/26  LAST.K  - Last keyboard scan
0042   0000             ; $4027     DB.ST   - Keyboard debounce status
0043   0000             ; $4028     MARGIN  - Number of lines in margin
0044   0000             ; $4029/2A  E.PPC   - Line number of line with cursor (ZX81 has NXTLIN here)
0045   0000             ; $402B/2C  OLDPPC  - Address of line where CONT jumps
0046   0000             ; $402D     FLAGX   - Some more flags
0047   0000             ; $402E/F   STRLEN  - String length
0048   0000             ; $4030/31  T.ADDR  - Next item in syntax table
0049   0000             ; $4032/33  SEED    - Seed for RND
0050   0000             ; $4034/35  FRAMES  - Frame counter
0051   0000             ; $4035/37  COORDS  - Last point plotted (to add for DRAW?)
0052   0000             ; $4038     PR.CC   - Address of LPRINT position
0053   0000             ; $4039/3A  S.POSN  - Current PRINT position
0054   0000             ; $403B     CDFLAG  - Compute Display Flags for FAST/SLOW mode (Bit 7 = 1 for SLOW, Bit 6 = 1 to request SLOW mode)
0055   0000             ; $403C-5C  PRBUFF  - Printer buffer
0056   0000             ; $405D-7A  MEMBOT  - Calculator memory
0057   0000             ; $407B-7C  BLINK   - Cursor blink
0058   0000             ; $407D-$4395       - Display file
0059   0000             ; $4396-RAMTOP      - User Program memory
0060   0000             
0061   0000             ; no DFILE - Location of display file, that is hard coded at $407D
0062   0000             
0063   0000             .org    00000h
0064   0000             
0065   0000             ; -----------
0066   0000             ; THE 'START'
0067   0000             ; -----------
0068   0000             
0069   0000             ; START
0070   0000             l0000h:
0071   0000 D3 FD           out (0fdh),a            ; turn off NMI
0072   0002             l0002h:
0073   0002 3E BF           ld a,0bfh
0074   0004 DB FE           in a,(0feh)             ; keyboard read (hold down key for ROM at $2000?)
0075   0006             l0006h:
0076   0006 18 1D           jr l0025h               ; Jump to START-3 via START-2
0077   0008             
0078   0008             ; -------------------
0079   0008             ; THE 'ERROR' RESTART
0080   0008             ; -------------------
0081   0008             
0082   0008             ; ERROR-1
0083   0008             l0008h:
0084   0008 2A 16 40        ld hl,(04016h)          ; CH.ADD - Address of next character to interpret
0085   000B 22 18 40        ld (04018h),hl          ; X.PTR - Address of character before error
0086   000E 18 47           jr l0057h               ;
0087   0010             
0088   0010             ; -------------------------------
0089   0010             ; THE 'PRINT A CHARACTER' RESTART
0090   0010             ; -------------------------------
0091   0010             
0092   0010             ; PRINT-A
0093   0010             l0010h:
0094   0010 A7              and a
0095   0011             l0011h:
0096   0011 C2 92 09        jp nz,l0992h
0097   0014 C3 96 09        jp l0996h
0098   0017             
0099   0017 FF              .byte $FF               ; unused
0100   0018             
0101   0018             ; ---------------------------------
0102   0018             ; THE 'COLLECT A CHARACTER' RESTART
0103   0018             ; ---------------------------------
0104   0018             
0105   0018             ; GET-CHAR
0106   0018             l0018h:
0107   0018 2A 16 40        ld hl,(04016h)
0108   001B 7E              ld a,(hl)
0109   001C             l001ch:
0110   001C A7              and a
0111   001D C0              ret nz
0112   001E 00              nop
0113   001F 00              nop
0114   0020             
0115   0020             ; ------------------------------------
0116   0020             ; THE 'COLLECT NEXT CHARACTER' RESTART
0117   0020             ; ------------------------------------
0118   0020             
0119   0020             ; NEXT-CHAR
0120   0020             l0020h:
0121   0020 CD 4A 00        call sub_004ah
0122   0023 18 F7           jr l001ch
0123   0025             
0124   0025             ; start continued
0125   0025             
0126   0025             ; START-2
0127   0025             l0025h:
0128   0025 C3 6E 04        jp l046eh
0129   0028             
0130   0028             ; ---------------------------------------
0131   0028             ; THE 'FLOATING POINT CALCULATOR' RESTART
0132   0028             ; ---------------------------------------
0133   0028             
0134   0028             ; FP-CALC
0135   0028             l0028h:
0136   0028 C3 94 1B        jp l1b94h
0137   002B             
0138   002B             ; end-calc
0139   002B             sub_002bh:
0140   002B F1              pop af
0141   002C D9              exx
0142   002D E3              ex (sp),hl
0143   002E D9              exx
0144   002F C9              ret
0145   0030             
0146   0030             ; -----------------------------
0147   0030             ; THE 'MAKE BC SPACES'  RESTART
0148   0030             ; -----------------------------
0149   0030             
0150   0030             ; BC-SPACES
0151   0030             l0030h:
0152   0030 C5              push bc
0153   0031 2A 14 40        ld hl,(04014h)
0154   0034 E5              push hl
0155   0035 C3 7D 16        jp l167dh
0156   0038             
0157   0038             ; -----------------------
0158   0038             ; THE 'INTERRUPT' RESTART
0159   0038             ; -----------------------
0160   0038             
0161   0038             ; INTERRUPT
0162   0038             l0038h:
0163   0038 0D              dec c
0164   0039 20 0A           jr nz,l0045h
0165   003B E1              pop hl
0166   003C 05              dec b
0167   003D C8              ret z
0168   003E C8              ret z                   ; extra delay? not in ZX81
0169   003F 0E 08           ld c,008h               ; faster than SET 3,C (but is that a good thing here?)
0170   0041             
0171   0041             ; WAIT-INT
0172   0041             l0041h:
0173   0041 ED 4F           ld r,a
0174   0043 FB              ei
0175   0044 E9              jp (hl)                 ; jump into display file mirror
0176   0045             
0177   0045             ; SCAN-LINE
0178   0045             l0045h:
0179   0045 D1              pop de
0180   0046 00              nop                     ; different timing to ZX81
0181   0047 18 F8           jr l0041h
0182   0049             
0183   0049 00              .byte $00               ; unused (which moved $004A-$0065 1 byte away from ZX81)
0184   004A             
0185   004A             ; ---------------------------------
0186   004A             ; THE 'INCREMENT CH-ADD' SUBROUTINE
0187   004A             ; ---------------------------------
0188   004A             
0189   004A             ; CH-ADD+1
0190   004A             sub_004ah:
0191   004A 2A 16 40        ld hl,(04016h)
0192   004D             
0193   004D             ; TEMP-PTR1
0194   004D             l004dh:
0195   004D 23              inc hl
0196   004E             
0197   004E             ; TEMP-PTR2
0198   004E             sub_004eh:
0199   004E 22 16 40        ld (04016h),hl
0200   0051 7E              ld a,(hl)
0201   0052 FE 7F           cp 07fh
0202   0054 C0              ret nz
0203   0055 18 F6           jr l004dh
0204   0057             
0205   0057             ; --------------------
0206   0057             ; THE 'ERROR-2' BRANCH
0207   0057             ; --------------------
0208   0057             
0209   0057             ; ERROR-2
0210   0057             l0057h:
0211   0057 E1              pop hl                  ; get error code
0212   0058 6E              ld l,(hl)               ; extract error byte
0213   0059             
0214   0059             ; ERROR-3
0215   0059             l0059h:
0216   0059 FD 75 00        ld (iy+000h),l          ; set ERR_NR, system error number
0217   005C ED 7B 02 40     ld sp,(04002h)          ; reset stack pointer to top of GOSUB stack
0218   0060 CD 85 02        call sub_0285h          ; SLOW mode
0219   0063 C3 B4 16        jp l16b4h               ; exit via SET_MIN to clear calculator stack
0220   0066             
0221   0066             ; ------------------------------------
0222   0066             ; THE 'NON MASKABLE INTERRUPT' ROUTINE
0223   0066             ; ------------------------------------
0224   0066             
0225   0066             ; NMI
0226   0066             l0066h:
0227   0066 08              ex af,af'               ; NMI uses the alternate A&F
0228   0067 3C              inc a                   ; Incrememnt line count
0229   0068 CA 6E 00        jp z,l006eh             ; Jump if line count has reached 0
0230   006B 00              nop                     ; NMI test removed (ROM will not run on ZX80 hardware)
0231   006C             
0232   006C             ; NMI-RET
0233   006C 08              ex af,af'               ; Return to normal A&F
0234   006D C9              ret                     ; Return to user code
0235   006E             
0236   006E             ; NMI-CONT
0237   006E             l006eh:
0238   006E 08              ex af,af'               ; Return to normal A&F
0239   006F F5              push af                 ; Save the main registers
0240   0070 C5              push bc                 ;
0241   0071 D5              push de                 ;
0242   0072 E5              push hl                 ;
0243   0073 21 7D C0        ld hl,$407D + $8000     ; Set HL to fixed DFILE mirror location (not ($400C) with bit 7 set)
0244   0076 76              halt                    ; sync with NMI
0245   0077             
0246   0077 D3 FD           out (0fdh),a            ; stop the NMI generator
0247   0079 DD E9           jp (ix)                 ; forward to X (after top) or X
0248   007B             
0249   007B             
0250   007B             ; ****************
0251   007B             ; ** KEY TABLES **
0252   007B             ; ****************
0253   007B             
0254   007B             ; -------------------------------
0255   007B             ; THE 'UNSHIFTED' CHARACTER CODES
0256   007B             ; -------------------------------
0257   007B             
0258   007B             ; K-UNSHIFT
0259   007B             L007bh:
0260   007B             
0261   007B 3F              .byte    $3F            ; Z
0262   007C 3D              .byte    $3D            ; X
0263   007D 28              .byte    $28            ; C
0264   007E 3B              .byte    $3B            ; V
0265   007F             
0266   007F 26              .byte    $26            ; A
0267   0080 38              .byte    $38            ; S
0268   0081 29              .byte    $29            ; D
0269   0082 2B              .byte    $2B            ; F
0270   0083 2C              .byte    $2C            ; G
0271   0084             
0272   0084 36              .byte    $36            ; Q
0273   0085 3C              .byte    $3C            ; W
0274   0086 2A              .byte    $2A            ; E
0275   0087 37              .byte    $37            ; R
0276   0088 39              .byte    $39            ; T
0277   0089             
0278   0089 1D              .byte    $1D            ; 1
0279   008A 1E              .byte    $1E            ; 2
0280   008B 1F              .byte    $1F            ; 3
0281   008C 20              .byte    $20            ; 4
0282   008D 21              .byte    $21            ; 5
0283   008E             
0284   008E 1C              .byte    $1C            ; 0
0285   008F 25              .byte    $25            ; 9
0286   0090 24              .byte    $24            ; 8
0287   0091 23              .byte    $23            ; 7
0288   0092 22              .byte    $22            ; 6
0289   0093 35              .byte    $35            ; P
0290   0094             
0291   0094 34              .byte    $34            ; O
0292   0095 2E              .byte    $2E            ; I
0293   0096 3A              .byte    $3A            ; U
0294   0097 3E              .byte    $3E            ; Y
0295   0098 76              .byte    $76            ; NEWLINE
0296   0099             
0297   0099 31              .byte    $31            ; L
0298   009A 30              .byte    $30            ; K
0299   009B 2F              .byte    $2F            ; J
0300   009C 2D              .byte    $2D            ; H
0301   009D 00              .byte    $00            ; SPACE
0302   009E             
0303   009E 1B              .byte    $1B            ; .
0304   009F 32              .byte    $32            ; M
0305   00A0 33              .byte    $33            ; N
0306   00A1 27              .byte    $27            ; B
0307   00A2             
0308   00A2             ; -----------------------------
0309   00A2             ; THE 'SHIFTED' CHARACTER CODES
0310   00A2             ; -----------------------------
0311   00A2             
0312   00A2             ; K-SHIFT
0313   00A2             l00a2h:
0314   00A2 F5              .byte    $F5            ; Shift + Z = PRINT
0315   00A3 7A              .byte    $7A            ; Shift + X = Line no
0316   00A4 70              .byte    $70            ; Shift + C = cursor-up
0317   00A5 71              .byte    $71            ; Shift + V = cursor-down
0318   00A6             
0319   00A6 C6              .byte    $C6            ; Shift + A = ASN
0320   00A7 C7              .byte    $C7            ; Shift + S = ACS
0321   00A8 C8              .byte    $C8            ; Shift + D = ATN
0322   00A9 CA              .byte    $CA            ; Shift + F = EXP
0323   00AA CE              .byte    $CE            ; Shift + G = ABS
0324   00AB             
0325   00AB C3              .byte    $C3            ; Shift + Q = SIN
0326   00AC C4              .byte    $C4            ; Shift + W = COS
0327   00AD C5              .byte    $C5            ; Shift + E = TAN
0328   00AE C9              .byte    $C9            ; Shift + R = LOG
0329   00AF CD              .byte    $CD            ; Shift + T = SGN
0330   00B0             
0331   00B0 0F              .byte    $0F            ; Shift + 1 = ?
0332   00B1 0C              .byte    $0C            ; Shift + 2 = £
0333   00B2 0E              .byte    $0E            ; Shift + 3 = :
0334   00B3 0D              .byte    $0D            ; Shift + 4 = $
0335   00B4 0B              .byte    $0B            ; Shift + 5 = "
0336   00B5             
0337   00B5 14              .byte    $14            ; Shift + 0 = =
0338   00B6 11              .byte    $11            ; Shift + 9 = )
0339   00B7 10              .byte    $10            ; Shift + 8 = (
0340   00B8 1A              .byte    $1A            ; Shift + 7 = ,
0341   00B9 19              .byte    $19            ; Shift + 6 = ;
0342   00BA             
0343   00BA 12              .byte    $12            ; Shift + P = >
0344   00BB 13              .byte    $13            ; Shift + O = <
0345   00BC 45              .byte    $45            ; Shift + I = PI
0346   00BD 43              .byte    $43            ; Shift + U = RND
0347   00BE CC              .byte    $CC            ; Shift + Y = SQR
0348   00BF             
0349   00BF 74              .byte    $74            ; Shift + N/L = GRAPHICS
0350   00C0 15              .byte    $15            ; Shift + L = +
0351   00C1 16              .byte    $16            ; Shift + K = -
0352   00C2 17              .byte    $17            ; Shift + J = *
0353   00C3 18              .byte    $18            ; Shift + H = /
0354   00C4             
0355   00C4 79              .byte    $79            ; Shift + SPACE = FUNCTION
0356   00C5 77              .byte    $77            ; Shift + . = RUBOUT
0357   00C6 75              .byte    $75            ; Shift + M = EDIT
0358   00C7 73              .byte    $73            ; Shift + N = cursor-right
0359   00C8 72              .byte    $72            ; Shift + B = cursor-left
0360   00C9             
0361   00C9             
0362   00C9             ; -----------------------------
0363   00C9             ; THE 'GRAPHIC' CHARACTER CODES
0364   00C9             ; -----------------------------
0365   00C9             
0366   00C9             ; K-GRAPH
0367   00C9             ; 00c9
0368   00C9 83              .byte    $83            ; Graphics + Z = graphic
0369   00CA 03              .byte    $03            ; Graphics + X = graphic
0370   00CB 05              .byte    $05            ; Graphics + C = graphic
0371   00CC 85              .byte    $85            ; Graphics + V = graphic
0372   00CD             
0373   00CD 08              .byte    $08            ; Graphics + A = graphic
0374   00CE 0A              .byte    $0A            ; Graphics + S = graphic
0375   00CF 09              .byte    $09            ; Graphics + D = graphic
0376   00D0 8A              .byte    $8A            ; Graphics + F = graphic
0377   00D1 89              .byte    $89            ; Graphics + G = graphic
0378   00D2             
0379   00D2 01              .byte    $01            ; Graphics + Q = graphic
0380   00D3 02              .byte    $02            ; Graphics + W = graphic
0381   00D4 04              .byte    $04            ; Graphics + E = graphic
0382   00D5 87              .byte    $87            ; Graphics + R = graphic
0383   00D6 81              .byte    $81            ; Graphics + T = graphic
0384   00D7             
0385   00D7 8F              .byte    $8F            ; Graphics + 1 = graphic
0386   00D8 8C              .byte    $8C            ; Graphics + 2 = graphic
0387   00D9 8E              .byte    $8E            ; Graphics + 3 = graphic
0388   00DA 8D              .byte    $8D            ; Graphics + 4 = inverse $
0389   00DB 8B              .byte    $8B            ; Graphics + 5 = inverse "
0390   00DC             
0391   00DC 94              .byte    $94            ; Graphics + 0 = inverse =
0392   00DD 91              .byte    $91            ; Graphics + 9 = inverse )
0393   00DE 90              .byte    $90            ; Graphics + 8 = inverse (
0394   00DF 9A              .byte    $9A            ; Graphics + 7 = inverse ,
0395   00E0 99              .byte    $99            ; Graphics + 6 = inverse ;
0396   00E1             
0397   00E1 92              .byte    $92            ; Graphics + P = inverse >
0398   00E2 93              .byte    $93            ; Graphics + O = inverse <
0399   00E3 07              .byte    $07            ; Graphics + I = graphic
0400   00E4 84              .byte    $84            ; Graphics + U = graphic
0401   00E5 82              .byte    $82            ; Graphics + Y = graphic
0402   00E6             
0403   00E6 78              .byte    $78            ; Graphics + N/L = KL
0404   00E7 95              .byte    $95            ; Graphics + L = inverse +
0405   00E8 96              .byte    $96            ; Graphics + K = inverse -
0406   00E9 97              .byte    $97            ; Graphics + J = inverse *
0407   00EA 98              .byte    $98            ; Graphics + H = inverse /
0408   00EB             
0409   00EB 78              .byte    $78            ; Graphics + SPACE =
0410   00EC 77              .byte    $77            ; Graphics + . = RUBOUT
0411   00ED 78              .byte    $78            ; Graphics + M = KL
0412   00EE 86              .byte    $86            ; Graphics + N = graphic
0413   00EF 06              .byte    $06            ; Graphics + B = graphic
0414   00F0             
0415   00F0             ; ------------------
0416   00F0             ; THE 'TOKEN' TABLES
0417   00F0             ; ------------------
0418   00F0             
0419   00F0             ; TOKENS
0420   00F0             l00f0h:
0421   00F0 9B              .byte   $1B+$80                         ; '.' + $80 ?
0422   00F1             l00f1h:
0423   00F1 28 34 29 AA     .byte   $28,$34,$29,$2A+$80             ; CODE
0424   00F5 3B 26 B1        .byte   $3B,$26,$31+$80                 ; VAL
0425   00F8 31 2A B3        .byte   $31,$2A,$33+$80                 ; LEN
0426   00FB 38 2E B3        .byte   $38,$2E,$33+$80                 ; SIN
0427   00FE 28 34 B8        .byte   $28,$34,$38+$80                 ; COS
0428   0101 39 26 B3        .byte   $39,$26,$33+$80                 ; TAN
0429   0104 26 38 B3        .byte   $26,$38,$33+$80                 ; ASN
0430   0107 26 28 B8        .byte   $26,$28,$38+$80                 ; ACS
0431   010A 26 39 B3        .byte   $26,$39,$33+$80                 ; ATN
0432   010D 31 34 AC        .byte   $31,$34,$2C+$80                 ; LOG
0433   0110 2A 3D B5        .byte   $2A,$3D,$35+$80                 ; EXP
0434   0113 2E 33 B9        .byte   $2E,$33,$39+$80                 ; INT
0435   0116 38 36 B7        .byte   $38,$36,$37+$80                 ; SQR
0436   0119 38 2C B3        .byte   $38,$2C,$33+$80                 ; SGN
0437   011C 26 27 B8        .byte   $26,$27,$38+$80                 ; ABS
0438   011F 35 2A 2A B0     .byte   $35,$2A,$2A,$30+$80             ; PEEK
0439   0123 3A 38 B7        .byte   $3A,$38,$37+$80                 ; USR
0440   0126 38 39 37 8D     .byte   $38,$39,$37,$0D+$80             ; STR$
0441   012A 28 2D 37 8D     .byte   $28,$2D,$37,$0D+$80             ; CHR$
0442   012E 33 34 B9        .byte   $33,$34,$39+$80                 ; NOT
0443   0131 26 B9           .byte   $26,$39+$80                     ; AT
0444   0133 39 26 A7        .byte   $39,$26,$27+$80                 ; TAB
0445   0136 17 97           .byte   $17,$17+$80                     ; **
0446   0138 34 B7           .byte   $34,$37+$80                     ; OR
0447   013A 26 33 A9        .byte   $26,$33,$29+$80                 ; AND
0448   013D 13 94           .byte   $13,$14+$80                     ; <=
0449   013F 12 94           .byte   $12,$14+$80                     ; >=
0450   0141 13 92           .byte   $13,$12+$80                     ; <>
0451   0143             
0452   0143 39 2A 32 35     .byte   $39,$2A,$32,$35,$34+$80         ; TEMPO
0452   0147 B4 
0453   0148 32 3A 38 2E     .byte   $32,$3A,$38,$2E,$28+$80         ; MUSIC
0453   014C A8 
0454   014D 38 34 3A 33     .byte   $38,$34,$3A,$33,$29+$80         ; SOUND
0454   0151 A9 
0455   0152 27 2A 2A B5     .byte   $27,$2A,$2A,$35+$80             ; BEEP
0456   0156 33 34 27 2A     .byte   $33,$34,$27,$2A,$2A,$35+$80     ; NOBEEP
0456   015A 2A B5 
0457   015C 31 35 37 2E     .byte   $31,$35,$37,$2E,$33,$39+$80     ; LPRINT
0457   0160 33 B9 
0458   0162 31 31 2E 38     .byte   $31,$31,$2E,$38,$39+$80         ; LLIST
0458   0166 B9 
0459   0167 38 39 34 B5     .byte   $38,$39,$34,$35+$80             ; STOP
0460   016B 38 31 34 BC     .byte   $38,$31,$34,$3C+$80             ; SLOW
0461   016F 2B 26 38 B9     .byte   $2B,$26,$38,$39+$80             ; FAST
0462   0173 33 2A BC        .byte   $33,$2A,$3C+$80                 ; NEW
0463   0176 38 28 37 34     .byte   $38,$28,$37,$34,$31,$31+$80     ; SCROLL
0463   017A 31 B1 
0464   017C 28 34 33 B9     .byte   $28,$34,$33,$39+$80             ; CONT
0465   0180 29 2E B2        .byte   $29,$2E,$32+$80                 ; DIM
0466   0183 37 2A B2        .byte   $37,$2A,$32+$80                 ; REM
0467   0186 2B 34 B7        .byte   $2B,$34,$37+$80                 ; FOR
0468   0189 2C 34 39 B4     .byte   $2C,$34,$39,$34+$80             ; GOTO
0469   018D 2C 34 38 3A     .byte   $2C,$34,$38,$3A,$27+$80         ; GOSUB
0469   0191 A7 
0470   0192 2E 33 35 3A     .byte   $2E,$33,$35,$3A,$39+$80         ; INPUT
0470   0196 B9 
0471   0197 31 34 26 A9     .byte   $31,$34,$26,$29+$80             ; LOAD
0472   019B 31 2E 38 B9     .byte   $31,$2E,$38,$39+$80             ; LIST
0473   019F 31 2A B9        .byte   $31,$2A,$39+$80                 ; LET
0474   01A2 35 26 3A 38     .byte   $35,$26,$3A,$38,$2A+$80         ; PAUSE
0474   01A6 AA 
0475   01A7 33 2A 3D B9     .byte   $33,$2A,$3D,$39+$80             ; NEXT
0476   01AB 35 34 30 AA     .byte   $35,$34,$30,$2A+$80             ; POKE
0477   01AF 35 37 2E 33     .byte   $35,$37,$2E,$33,$39+$80         ; PRINT
0477   01B3 B9 
0478   01B4 35 31 34 B9     .byte   $35,$31,$34,$39+$80             ; PLOT
0479   01B8 37 3A B3        .byte   $37,$3A,$33+$80                 ; RUN
0480   01BB 38 26 3B AA     .byte   $38,$26,$3B,$2A+$80             ; SAVE
0481   01BF 37 26 33 A9     .byte   $37,$26,$33,$29+$80             ; RAND
0482   01C3 2E AB           .byte   $2E,$2B+$80                     ; IF
0483   01C5 28 31 B8        .byte   $28,$31,$38+$80                 ; CLS
0484   01C8 3A 33 35 31     .byte   $3A,$33,$35,$31,$34,$39+$80     ; UNPLOT
0484   01CC 34 B9 
0485   01CE 28 31 2A 26     .byte   $28,$31,$2A,$26,$37+$80         ; CLEAR
0485   01D2 B7 
0486   01D3 37 2A 39 3A     .byte   $37,$2A,$39,$3A,$37,$33+$80     ; RETURN
0486   01D7 37 B3 
0487   01D9 28 34 35 BE     .byte   $28,$34,$35,$3E+$80             ; COPY
0488   01DD             
0489   01DD 39 2D 2A B3     .byte   $39,$2D,$2A,$33+$80             ; THEN
0490   01E1 39 B4           .byte   $39,$34+$80                     ; TO
0491   01E3 38 39 2A B5     .byte   $38,$39,$2A,$35+$80             ; STEP
0492   01E7 37 33 A9        .byte   $37,$33,$29+$80                 ; RND
0493   01EA 2E 33 30 2A     .byte   $2E,$33,$30,$2A,$3E,$0D+$80     ; INKEY$
0493   01EE 3E 8D 
0494   01F0 35 AE           .byte   $35,$2E+$80                     ; PI
0495   01F2             
0496   01F2             ; ---------------------------
0497   01F2             ; THE 'ERROR MESSAGES' TABLES
0498   01F2             ; ---------------------------
0499   01F2             
0500   01F2             ; table of error messages, used by function at $07E1
0501   01F2             l01f2h:
0502   01F2 34 30           .byte    $34,$30        ; FF = OK - OK
0503   01F4 33 2B           .byte    $33,$2B        ; 00 = NF - NEXT without FOR
0504   01F6 3A 3B           .byte    $3A,$3B        ; 01 = UV - Unidentified Variable
0505   01F8 27 38           .byte    $27,$38        ; 02 = BS - Bad Subscript
0506   01FA 34 32           .byte    $34,$32        ; 03 = OM - Out of Memory
0507   01FC 38 2B           .byte    $38,$2B        ; 04 = SF - Screen Full
0508   01FE 34 3B           .byte    $34,$3B        ; 05 = OV - OVerflow
0509   0200 37 2C           .byte    $37,$2C        ; 06 = RG - RETURN without GOSUB
0510   0202 2E 2E           .byte    $2E,$2E        ; 07 = II - Illegal INPUT
0511   0204 38 39           .byte    $38,$39        ; 08 = ST - STop
0512   0206 26 2C           .byte    $26,$2C        ; 09 = AG - invalid ArGument
0513   0208 2E 37           .byte    $2E,$37        ; 0A = IR - Integer out of Range
0514   020A 2E 2A           .byte    $2E,$2A        ; 0B = IE - Invalid Expression
0515   020C 27 30           .byte    $27,$30        ; 0C = BK - BreaK
0516   020E 33 26           .byte    $33,$26        ; 0D = NA - no program NAme
0517   0210 32 2B           .byte    $32,$2B        ; 0E = MF - Music Format incorrect
0518   0212             
0519   0212             ; the " IN " message
0520   0212             l0212h:
0521   0212 00 2E 33 00     .byte    $00,$2E,$33,$00    ; " IN " ("OK IN 10")
0522   0216             
0523   0216             
0524   0216             ; ------------------------------
0525   0216             ; THE 'LOAD-SAVE UPDATE' ROUTINE
0526   0216             ; ------------------------------
0527   0216             
0528   0216             ; LOAD/SAVE
0529   0216             sub_0216h:
0530   0216 23              inc hl
0531   0217 EB              ex de,hl
0532   0218 2A 14 40        ld hl,(04014h)
0533   021B 37              scf
0534   021C ED 52           sbc hl,de
0535   021E EB              ex de,hl
0536   021F D0              ret nc
0537   0220 E1              pop hl
0538   0221             ; ZX81 drops to SLOW here
0539   0221             
0540   0221 FD 34 09        inc (iy+009h)           ; check version
0541   0224 28 5F           jr z,sub_0285h          ; skip if it was $FF
0542   0226 2A 0C 40        ld hl,(0400ch)          ; Start of user program ($4396) - Not DFILE
0543   0229 23              inc hl
0544   022A 22 10 40        ld (04010h),hl
0545   022D 21 7D 40        ld hl,0407dh            ; Hard coded DFILE location
0546   0230 01 19 03        ld bc,00319h
0547   0233 CD 30 0B        call sub_0b30h          ; MAKE-ROOM
0548   0236 EB              ex de,hl
0549   0237             l0237h:
0550   0237 23              inc hl
0551   0238 3E C0           ld a,0c0h
0552   023A A6              and (hl)
0553   023B 23              inc hl
0554   023C 23              inc hl
0555   023D 23              inc hl
0556   023E 28 08           jr z,l0248h
0557   0240 21 96 43        ld hl,04396h
0558   0243 C3 AC 04        jp l04ach
0559   0246             
0560   0246             ; this code appears to be checking through the code
0561   0246             ; Possibly handling loading ZX81 files (which it can do, but not the other way around)
0562   0246             
0563   0246             l0246h:
0564   0246 80              add a,b
0565   0247             l0247h:
0566   0247 77              ld (hl),a
0567   0248             l0248h:
0568   0248 23              inc hl                  ; step through program
0569   0249 7E              ld a,(hl)
0570   024A CD 55 09        call sub_0955h          ; routine NUMBER
0571   024D 28 F9           jr z,l0248h
0572   024F FE 76           cp 076h
0573   0251 28 E4           jr z,l0237h
0574   0253 FE E1           cp 0e1h
0575   0255 30 F1           jr nc,l0248h
0576   0257 FE 40           cp 040h
0577   0259 38 ED           jr c,l0248h
0578   025B 06 03           ld b,003h
0579   025D FE 43           cp 043h
0580   025F 38 E5           jr c,l0246h
0581   0261 06 62           ld b,062h
0582   0263 FE DE           cp 0deh
0583   0265 30 DF           jr nc,l0246h
0584   0267 06 FE           ld b,0feh
0585   0269 FE D8           cp 0d8h
0586   026B 30 D9           jr nc,l0246h
0587   026D 06 FC           ld b,0fch
0588   026F FE C4           cp 0c4h
0589   0271 30 D3           jr nc,l0246h
0590   0273 06 13           ld b,013h
0591   0275 FE C1           cp 0c1h
0592   0277 30 CD           jr nc,l0246h
0593   0279 FE C0           cp 0c0h
0594   027B 20 CB           jr nz,l0248h
0595   027D 3E 17           ld a,017h
0596   027F 18 C6           jr l0247h               ; loop back
0597   0281             
0598   0281             ; --------------------------
0599   0281             ; THE 'SLOW' COMMAND ROUTINE
0600   0281             ; --------------------------
0601   0281             
0602   0281             ; SLOW
0603   0281             sub_0281h:
0604   0281 FD CB 3B F6     set 6,(iy+03bh)         ; Request slow mode ()
0605   0285             
0606   0285             ; FAST/SLOW
0607   0285             sub_0285h:
0608   0285 21 3B 40        ld hl,0403bh            ; load the CDFLAG
0609   0288 7E              ld a,(hl)
0610   0289 17              rla                     ; bit 6 (request) -> bit 7 (current state)
0611   028A AE              xor (hl)                ; XOR with actual current state
0612   028B 17              rla                     ; result -> carry
0613   028C D0              ret nc                  ; return if already in requested mode
0614   028D             
0615   028D CB FE           set 7,(hl)              ; set slow mode - compute and display
0616   028F F5              push af
0617   0290 C5              push bc
0618   0291 D5              push de
0619   0292 E5              push hl
0620   0293             
0621   0293             ; Called where DISPLAY-1 usually was
0622   0293             ; PRE-DISPLAY-1
0623   0293             sub_0293h:
0624   0293 AF              xor a                   ; clear the line counter
0625   0294 08              ex af,af'
0626   0295 D3 FE           out (0feh),a            ; enable NMI generator
0627   0297 76              halt                    ; wait for interrupt
0628   0298 D3 FD           out (0fdh),a            ; disable NMI generator
0629   029A 7E              ld a,(hl)               ; waste cycles
0630   029B 7E              ld a,(hl)
0631   029C 00              nop
0632   029D             
0633   029D             ; -----------------------
0634   029D             ; THE 'MAIN DISPLAY' LOOP
0635   029D             ; -----------------------
0636   029D             ; This routine is executed once for every frame displayed.
0637   029D             
0638   029D             ;; DISPLAY-1
0639   029D             l029dh:
0640   029D 2A 34 40        ld hl,(04034h)          ; Get the frame count from FRAMES
0641   02A0 2B              dec hl
0642   02A1 3E 7F           ld a,07fh               ; Mask bit 7
0643   02A3 A4              and h                   ; of H
0644   02A4 B5              or l                    ; and OR with L
0645   02A5 7C              ld a,h                  ;
0646   02A6 20 03           jr nz,l02abh            ; Jump if frame counter bits 0-14 are zero
0647   02A8 17              rla                     ; bit 15 of frame counter (1 if paused) to carry
0648   02A9 18 02           jr l02adh               ; skip
0649   02AB             
0650   02AB             ; ANOTHER
0651   02AB             l02abh:
0652   02AB 46              ld b,(hl)               ; Dummy timing
0653   02AC 37              scf                     ; set carry
0654   02AD             
0655   02AD             ; OVER-NC
0656   02AD             l02adh:
0657   02AD 67              ld h,a
0658   02AE 22 34 40        ld (04034h),hl          ; Save the new frame count to FRAMES
0659   02B1 D0              ret nc                  ; Return if FRAMES is in use by PAUSE command
0660   02B2             
0661   02B2             ; ZX81 goes string to ; DISPLAY-2
0662   02B2             
0663   02B2             ; Bit 7 of the cursor character is inverted every 16 frames
0664   02B2             ; That makes it flashe approximately 2 times a second
0665   02B2             ; BLINK-CURSOR
0666   02B2 7D              ld a,l                  ; A = LSB of FRAMES
0667   02B3 2A 7B 40        ld hl,(0407bh)          ; Address of blinking cursor
0668   02B6 CB 26           sla (hl)                ; rotate cursor character
0669   02B8 17              rla                     ;
0670   02B9 17              rla                     ;
0671   02BA 17              rla                     ;
0672   02BB 17              rla                     ; rotate A bit 4 into carry
0673   02BC CB 1E           rr (hl)                 ; rotate carry back into character
0674   02BE             
0675   02BE             ; DISPLAY-2
0676   02BE CD 3D 03        call sub_033dh          ; KEYBOARD - scan keyboard and start VSYNC
0677   02C1 ED 4B 25 40     ld bc,(04025h)          ; get LAST_K
0678   02C5 22 25 40        ld (04025h),hl          ; update LAST_K
0679   02C8 78              ld a,b
0680   02C9 C6 02           add a,002h
0681   02CB ED 42           sbc hl,bc
0682   02CD 3A 27 40        ld a,(04027h)           ; Check DEBOUNCE
0683   02D0 B4              or h
0684   02D1 B5              or l
0685   02D2 58              ld e,b
0686   02D3 06 09           ld b,009h               ; ZX81 used $0B
0687   02D5 21 3B 40        ld hl,0403bh            ; Get CDFLAG
0688   02D8 CB 86           res 0,(hl)
0689   02DA 20 08           jr nz,l02e4h
0690   02DC CB 7E           bit 7,(hl)
0691   02DE CB C6           set 0,(hl)
0692   02E0 C8              ret z                   ; return if in FAST mode
0693   02E1 05              dec b
0694   02E2 05              dec b                   ; extra DEC B, ZX81 was NOP
0695   02E3 37              scf
0696   02E4             
0697   02E4             ; NO-KEY
0698   02E4             l02e4h:
0699   02E4 CB 10           rl b                    ; Reordered from ZX81
0700   02E6             
0701   02E6             ; LOOP-B
0702   02E6             l02e6h:
0703   02E6 10 FE           djnz l02e6h
0704   02E8 21 27 40        ld hl,04027h
0705   02EB 46              ld b,(hl)               ; Get DEBOUCE
0706   02EC 7B              ld a,e
0707   02ED FE FE           cp 0feh
0708   02EF 9F              sbc a,a
0709   02F0 06 0F           ld b,00fh               ; ZX81 has $1F
0710   02F2 B6              or (hl)
0711   02F3 A0              and b
0712   02F4 1F              rra
0713   02F5 77              ld (hl),a
0714   02F6             l02f6h:
0715   02F6 29              add hl,hl
0716   02F7 23              inc hl
0717   02F8 D3 FF           out (0ffh),a            ; End VSYNC pulse
0718   02FA             
0719   02FA 21 7D C0        ld hl,$407D + $8000     ; Hard coded DFILE location
0720   02FD CD 14 03        call sub_0314h
0721   0300             
0722   0300             ; ---------------------
0723   0300             ; THE 'VIDEO-1' ROUTINE
0724   0300             ; ---------------------
0725   0300             
0726   0300             ; R-IX-1 (timing altered)
0727   0300 01 01 19        ld bc,01901h            ; B=25 lines, C=1 scanline
0728   0303 3A 00 00        ld a,(l0000h)           ; wasting cycles
0729   0306 3E F5           ld a,0f5h               ; Preset value to go into R to cause trigger at correct time
0730   0308 CD 37 03        call sub_0337h          ; DISPLAY-5, border complete, generate text display
0731   030B 00              nop
0732   030C 00              nop
0733   030D 2B              dec hl                  ; back to the previous HALT character
0734   030E CD 14 03        call sub_0314h          ; DISPLAY-3, bottom border
0735   0311 C3 9D 02        jp l029dh               ; Back to DISPLAY-1
0736   0314             
0737   0314             ; ---------------------------------
0738   0314             ; THE 'DISPLAY BLANK LINES' ROUTINE
0739   0314             ; ---------------------------------
0740   0314             
0741   0314             ; DISPLAY-3
0742   0314             sub_0314h:
0743   0314 DD E1           pop ix
0744   0316 FD 4E 28        ld c,(iy+028h)          ; Load C with MARGIN value
0745   0319 FD CB 3B 7E     bit 7,(iy+03bh)         ; Check CDFLAG
0746   031D 28 0C           jr z,l032bh             ; To DISPLAY-4 in FAST mode
0747   031F             
0748   031F 79              ld a,c                  ; A = 31 (NTSC) or 55 (PAL)
0749   0320 ED 44           neg
0750   0322 3C              inc a
0751   0323 08              ex af,af'               ; Set NMI's A register to $FF-MARGIN
0752   0324             
0753   0324 D3 FE           out (0feh),a            ; Enable the NMI generator
0754   0326             
0755   0326 E1              pop hl                  ; Restore main registers
0756   0327 D1              pop de
0757   0328 C1              pop bc
0758   0329 F1              pop af
0759   032A C9              ret                     ; return to users code until interrupted
0760   032B             
0761   032B             ; ------------------------
0762   032B             ; THE 'FAST MODE' ROUTINES
0763   032B             ; ------------------------
0764   032B             
0765   032B             ; DISPLAY-4
0766   032B             l032bh:
0767   032B 3E FC           ld a,0fch               ; Set delay
0768   032D 06 01           ld b,001h               ; For 1 row
0769   032F CD 37 03        call sub_0337h          ; To DISPLAY-5
0770   0332 2B              dec hl                  ; Back to previous HALT
0771   0333 E3              ex (sp),hl              ; Waste cycles
0772   0334 E3              ex (sp),hl
0773   0335 DD E9           jp (ix)                 ; Back to R-IX-1 or R-IX-2
0774   0337             
0775   0337             ; --------------------------
0776   0337             ; THE 'DISPLAY-5' SUBROUTINE
0777   0337             ; --------------------------
0778   0337             
0779   0337             ; DISPLAY-5
0780   0337             sub_0337h:
0781   0337 ED 4F           ld r,a                  ; R= $FC (SLOW mode) or $FC (FAST mode)
0782   0339 3E DD           ld a,0ddh               ; Preload next R
0783   033B FB              ei                      ; Enable interrupts at the end of lines
0784   033C E9              jp (hl)                 ; Jump into the echo display file
0785   033D             
0786   033D             ; ----------------------------------
0787   033D             ; THE 'KEYBOARD SCANNING' SUBROUTINE
0788   033D             ; ----------------------------------
0789   033D             
0790   033D             ; KEYBOARD
0791   033D             sub_033dh:
0792   033D 21 FF FF        ld hl,0ffffh
0793   0340 01 FE FE        ld bc,0fefeh
0794   0343 ED 78           in a,(c)                ; Read port $FE, starts VSync pulse
0795   0345 F6 01           or 001h                 ; Ignore shift
0796   0347             
0797   0347             ; EACH-LINE
0798   0347             l0347h:
0799   0347 F6 E0           or 0e0h
0800   0349 57              ld d,a
0801   034A 2F              cpl
0802   034B FE 01           cp 001h
0803   034D 9F              sbc a,a
0804   034E B0              or b
0805   034F A5              and l
0806   0350 6F              ld l,a
0807   0351 7C              ld a,h
0808   0352 A2              and d
0809   0353 67              ld h,a
0810   0354 CB 00           rlc b
0811   0356 ED 78           in a,(c)
0812   0358 38 ED           jr c,l0347h
0813   035A 1F              rra
0814   035B CB 14           rl h
0815   035D             
0816   035D             ; GET_REGION
0817   035D 3E FF           ld a,0ffh               ; Read port $7E
0818   035F DB 7E           in a,(07eh)             ; Will return the same as $FE unless there is something different in the Lambda
0819   0361 1F              rra                     ; Bit 7 => carry (Bit 7 that is the tape input???)
0820   0362 3F              ccf                     ; carry = !carry
0821   0363 9F              sbc a,a                 ; A = $FF (PAL) or $00 (NTSC)
0822   0364 E6 18           and 018h                ; A = $18       or $00
0823   0366 C6 1F           add a,01fh              ; A = $37       or $1F
0824   0368 32 28 40        ld (04028h),a           ; Save this as MARGIN
0825   036B C9              ret
0826   036C             
0827   036C             ; --------------------------
0828   036C             ; THE 'FAST' COMMAND ROUTINE
0829   036C             ; --------------------------
0830   036C             ; FAST
0831   036C             sub_036ch:
0832   036C FD CB 3B B6     res 6,(iy+03bh)         ; Request FAST mode
0833   0370             
0834   0370             ; ------------------------------
0835   0370             ; THE 'SET FAST MODE' SUBROUTINE
0836   0370             ; ------------------------------
0837   0370             
0838   0370             ; SET-FAST
0839   0370             sub_0370h:
0840   0370 FD CB 3B 7E     bit 7,(iy+03bh)         ; Test FAST mode
0841   0374 C8              ret z                   ; Already in Fast mode
0842   0375 76              halt                    ; Synchronise with interrupt
0843   0376             
0844   0376 D3 FD           out (0fdh),a            ; Disable NMI generator (value of A unimportant)
0845   0378 FD CB 3B BE     res 7,(iy+03bh)         ; Set FAST mode
0846   037C C9              ret
0847   037D             
0848   037D             ; --------------
0849   037D             ; THE 'REPORT-F'
0850   037D             ; --------------
0851   037D             
0852   037D             ;; REPORT-F
0853   037D             l037dh:
0854   037D CF              rst 08h                 ; ERROR-1
0855   037E 0D              .byte $0D               ; NA - po program NAme supplied.
0856   037F             
0857   037F             ; --------------------------
0858   037F             ; THE 'SAVE COMMAND' ROUTINE
0859   037F             ; --------------------------
0860   037F             
0861   037F             ; SAVE
0862   037F             sub_037fh:
0863   037F CD 35 04        call sub_0435h
0864   0382 38 F9           jr c,l037dh
0865   0384 FD 36 09 FF     ld (iy+009h),0ffh
0866   0388 EB              ex de,hl
0867   0389 11 CB 12        ld de,012cbh            ; five seconds timing value
0868   038C             l038ch:
0869   038C CD 3B 11        call sub_113bh
0870   038F 30 2E           jr nc,l03bfh
0871   0391             l0391h:
0872   0391 10 FE           djnz l0391h
0873   0393 1B              dec de
0874   0394 7A              ld a,d
0875   0395 B3              or e
0876   0396 20 F4           jr nz,l038ch
0877   0398             l0398h:
0878   0398 CD AB 03        call sub_03abh
0879   039B CB 7E           bit 7,(hl)
0880   039D 23              inc hl
0881   039E 28 F8           jr z,l0398h
0882   03A0 21 09 40        ld hl,04009h
0883   03A3             l03a3h:
0884   03A3 CD AB 03        call sub_03abh
0885   03A6 CD 16 02        call sub_0216h
0886   03A9 18 F8           jr l03a3h
0887   03AB             
0888   03AB             ; -------------------------
0889   03AB             ; THE 'OUT-BYTE' SUBROUTINE
0890   03AB             ; -------------------------
0891   03AB             
0892   03AB             ; OUT-BYTE
0893   03AB             sub_03abh:
0894   03AB 5E              ld e,(hl)
0895   03AC 37              scf
0896   03AD             
0897   03AD             ; EACH-BIT
0898   03AD             l03adh:
0899   03AD CB 13           rl e
0900   03AF C8              ret z
0901   03B0 9F              sbc a,a
0902   03B1 E6 05           and 005h
0903   03B3 C6 04           add a,004h
0904   03B5 4F              ld c,a
0905   03B6             
0906   03B6             ; PULSES
0907   03B6             l03b6h:
0908   03B6 D3 FF           out (0ffh),a
0909   03B8 06 23           ld b,023h
0910   03BA             
0911   03BA             ; DELAY-2
0912   03BA             l03bah:
0913   03BA 10 FE           djnz l03bah
0914   03BC CD 3B 11        call sub_113bh
0915   03BF             
0916   03BF             ; BREAK-2
0917   03BF             l03bfh:
0918   03BF 30 72           jr nc,l0433h
0919   03C1 06 1E           ld b,01eh
0920   03C3             
0921   03C3             ; DELAY-3
0922   03C3             l03c3h:
0923   03C3 10 FE           djnz l03c3h
0924   03C5 0D              dec c
0925   03C6 20 EE           jr nz,l03b6h
0926   03C8             
0927   03C8             ; DELAY-4
0928   03C8             l03c8h:
0929   03C8 A7              and a
0930   03C9 10 FD           djnz l03c8h
0931   03CB 18 E0           jr l03adh
0932   03CD             
0933   03CD             ; --------------------------
0934   03CD             ; THE 'LOAD COMMAND' ROUTINE
0935   03CD             ; --------------------------
0936   03CD             
0937   03CD             ; LOAD
0938   03CD             sub_03cdh:
0939   03CD CD 35 04        call sub_0435h
0940   03D0 CB 12           rl d
0941   03D2 CB 0A           rrc d
0942   03D4             ; NEXT-PROG
0943   03D4             l03d4h:
0944   03D4 CD D9 03        call sub_03d9h
0945   03D7 18 FB           jr l03d4h
0946   03D9             
0947   03D9             ; ------------------------
0948   03D9             ; THE 'IN-BYTE' SUBROUTINE
0949   03D9             ; ------------------------
0950   03D9             
0951   03D9             ; IN-BYTE
0952   03D9             sub_03d9h:
0953   03D9 0E 01           ld c,001h
0954   03DB             
0955   03DB             ; NEXT-BIT
0956   03DB             l03dbh:
0957   03DB 06 00           ld b,000h
0958   03DD             
0959   03DD             ; BREAK-3
0960   03DD             l03ddh:
0961   03DD 3E 7F           ld a,07fh
0962   03DF DB FE           in a,(0feh)
0963   03E1 D3 FF           out (0ffh),a
0964   03E3 1F              rra
0965   03E4 30 49           jr nc,l042fh
0966   03E6 17              rla
0967   03E7 17              rla
0968   03E8 38 28           jr c,l0412h
0969   03EA 10 F1           djnz l03ddh
0970   03EC F1              pop af
0971   03ED BA              cp d
0972   03EE             
0973   03EE             ; RESTART
0974   03EE             l03eeh:
0975   03EE D2 A3 04        jp nc,l04a3h
0976   03F1 62              ld h,d
0977   03F2 6B              ld l,e
0978   03F3             
0979   03F3             ; IN-NAME
0980   03F3             l03f3h:
0981   03F3 CD D9 03        call sub_03d9h
0982   03F6 CB 7A           bit 7,d
0983   03F8 79              ld a,c
0984   03F9 20 03           jr nz,l03feh
0985   03FB BE              cp (hl)
0986   03FC 20 D6           jr nz,l03d4h
0987   03FE             
0988   03FE             ; MATCHING
0989   03FE             l03feh:
0990   03FE 23              inc hl
0991   03FF 17              rla
0992   0400 30 F1           jr nc,l03f3h
0993   0402 FD 34 15        inc (iy+015h)
0994   0405 21 09 40        ld hl,04009h
0995   0408             
0996   0408             ; IN-PROG
0997   0408             l0408h:
0998   0408 50              ld d,b
0999   0409 CD D9 03        call sub_03d9h
1000   040C 71              ld (hl),c
1001   040D CD 16 02        call sub_0216h
1002   0410 18 F6           jr l0408h
1003   0412             
1004   0412             ; GET-BIT
1005   0412             l0412h:
1006   0412 D5              push de
1007   0413 1E 94           ld e,094h
1008   0415             
1009   0415             ; TRAILER
1010   0415             l0415h:
1011   0415 06 1A           ld b,01ah
1012   0417             
1013   0417             ; COUNTER
1014   0417             l0417h:
1015   0417 1D              dec e
1016   0418 DB FE           in a,(0feh)
1017   041A 17              rla
1018   041B CB 7B           bit 7,e
1019   041D 7B              ld a,e
1020   041E 38 F5           jr c,l0415h
1021   0420 10 F5           djnz l0417h
1022   0422 D1              pop de
1023   0423 20 04           jr nz,l0429h
1024   0425 FE 56           cp 056h
1025   0427 30 B2           jr nc,l03dbh
1026   0429             
1027   0429             ; BIT-DONE
1028   0429             l0429h:
1029   0429 3F              ccf
1030   042A CB 11           rl c
1031   042C 30 AD           jr nc,l03dbh
1032   042E C9              ret
1033   042F             
1034   042F             ; BREAK-4
1035   042F             l042fh:
1036   042F 7A              ld a,d
1037   0430 A7              and a
1038   0431 28 BB           jr z,l03eeh
1039   0433             
1040   0433             ; REPORT-D
1041   0433             l0433h:
1042   0433 CF              rst 08h                 ; ERROR-1
1043   0434 0C              .byte $0C               ; Error Report: BREAK - CONT repeats
1044   0435             
1045   0435             ; -----------------------------
1046   0435             ; THE 'PROGRAM NAME' SUBROUTINE
1047   0435             ; -----------------------------
1048   0435             
1049   0435             ; NAME
1050   0435             sub_0435h:
1051   0435 CD 4A 11        call sub_114ah          ; routine SCANNING
1052   0438 3A 01 40        ld a,(04001h)
1053   043B 87              add a,a
1054   043C FA 17 0F        jp m,l0f17h             ; to REPORT-C - Invalid Expression
1055   043F E1              pop hl
1056   0440 D0              ret nc
1057   0441 E5              push hl
1058   0442 CD 70 03        call sub_0370h          ; routine SET-FAST
1059   0445 CD ED 15        call sub_15edh          ; routine STK-FETCH
1060   0448 62              ld h,d
1061   0449 6B              ld l,e
1062   044A 0D              dec c
1063   044B F8              ret m
1064   044C 09              add hl,bc
1065   044D CB FE           set 7,(hl)
1066   044F C9              ret
1067   0450             
1068   0450             ; --------------------------
1069   0450             ; THE 'MAKE A NOISE' ROUTINE
1070   0450             ; --------------------------
1071   0450             
1072   0450             ; MAKE-NOISE
1073   0450             sub_0450h:
1074   0450 1E 20           ld e,020h               ; note = 32500/32 = 1.02KHz
1075   0452 01 00 18        ld bc,01800h            ; duration = 6144/65 = 94ms
1076   0455 18 09           jr l0460h               ; Routine PLAY-NOTE
1077   0457             
1078   0457             ; ----------------------------
1079   0457             ; THE 'SOUND' COMMAND ROUTINE
1080   0457             ; ----------------------------
1081   0457             
1082   0457             ; SOUND
1083   0457             sub_0457h:
1084   0457 CD 88 10        call sub_1088h          ; routine FIND-INT => BC
1085   045A C5              push bc
1086   045B CD 83 10        call sub_1083h          ; routine FIND-SHORT => A
1087   045E C1              pop bc
1088   045F 5F              ld e,a                  ; INT => E
1089   0460             
1090   0460             ; PLAY-NOTE
1091   0460             ; E = note, defined as 32500Hz/E, so (0=256=>127Hz) to (1=>32.5KHz)
1092   0460             ; BC = duration, defined as BC/65ms, so (1=>15ms) to (0=65536=>1 second)
1093   0460             ; Appox 4 times slower in SLOW mode
1094   0460             l0460h:
1095   0460 DB F5           in a,(0f5h)             ; Toggle beeper on read of $F5
1096   0462 53              ld d,e                  ; Note
1097   0463             ; PLAY-NOTE-2
1098   0463             l0463h:
1099   0463 0B              dec bc                  ; Duration
1100   0464 78              ld a,b
1101   0465 B1              or c
1102   0466 C8              ret z                   ; Return when BC=0
1103   0467 15              dec d
1104   0468 28 F6           jr z,l0460h             ; Toggle speaker when note countdown complete
1105   046A 00              nop
1106   046B 00              nop
1107   046C 18 F5           jr l0463h               ; Loop until complete
1108   046E             
1109   046E             
1110   046E             ; ---------------
1111   046E             ; START CONTINUED
1112   046E             ; ---------------
1113   046E             
1114   046E             ; START-3
1115   046E             l046eh:
1116   046E 1F              rra                     ; A was read from FE, column 0 -> C
1117   046F 2F              cpl
1118   0470 32 06 40        ld (04006h),a           ; set mode
1119   0473 01 FF BF        ld bc,0bfffh            ; top of possible RAM, making max RAM 32K
1120   0476 30 11           jr nc,l0489h            ; skip RAM test if key in column 0 held? autostart expansion ROM?
1121   0478 3A 7D 40        ld a,(0407dh)           ; check of there is a DFILE
1122   047B FE 76           cp 076h                 ; should start with a NL/HALT
1123   047D 20 0A           jr nz,l0489h            ; no DFILE, so do a cold start
1124   047F 28 3F           jr z,l04c0h             ; DFILE present, warm start, skip RAM test
1125   0481             
1126   0481             ; -------------------------
1127   0481             ; THE 'NEW' COMMAND ROUTINE
1128   0481             ; -------------------------
1129   0481             
1130   0481             ; NEW
1131   0481             sub_0481h:
1132   0481 CD 70 03        call sub_0370h          ; Set FAST mode
1133   0484 ED 4B 04 40     ld bc,(04004h)          ; RAMTOP top of detected / protected RAM
1134   0488 0B              dec bc
1135   0489             
1136   0489             ; RAM check
1137   0489             l0489h:
1138   0489 60              ld h,b                  ; HL = BC = last byte to test
1139   048A 69              ld l,c
1140   048B 3E 3F           ld a,03fh               ; stop point, check RAM down to $4000
1141   048D             
1142   048D             ; RAM fill
1143   048D             l048dh:
1144   048D 36 02           ld (hl),002h            ; write 2 to every address in RAM.
1145   048F 2B              dec hl
1146   0490 BC              cp h                    ; stop when H=A=$3F
1147   0491 20 FA           jr nz,l048dh
1148   0493             
1149   0493             ; RAM read
1150   0493             l0493h:
1151   0493 A7              and a                   ; reset carry flag
1152   0494 ED 42           sbc hl,bc               ; Compare HL and BC
1153   0496 09              add hl,bc               ;
1154   0497 23              inc hl                  ; HL = 4000 - what was the point in all that?
1155   0498 30 06           jr nc,l04a0h            ; if HL=BC, we're finished?
1156   049A 35              dec (hl)                ; Decrement RAM
1157   049B 28 03           jr z,l04a0h             ; Test if RAM was 1, but it would be picked up by the next test anyway?
1158   049D                                         ; I wonder if this was original a test for mirrors? but it doesn't do that now
1159   049D 35              dec (hl)                ; Decrement RAM
1160   049E 28 F3           jr z,l0493h             ; It was 2 previously, zero now, good RAM, keep checking
1161   04A0             
1162   04A0             ; Set TOP
1163   04A0             l04a0h:
1164   04A0 22 04 40        ld (04004h),hl          ; Set RAMTOP, top of usable RAM
1165   04A3             l04a3h:
1166   04A3 21 97 43        ld hl,04397h            ; Set VARS, starts of variable area
1167   04A6 22 10 40        ld (04010h),hl          ; VARS = $4397 - fixed location after DFILE
1168   04A9 2B              dec hl                  ; HL = 4396, start of program
1169   04AA 36 FF           ld (hl),0ffh
1170   04AC             l04ach:
1171   04AC 22 0C 40        ld (0400ch),hl          ; Set PRGRM
1172   04AF             
1173   04AF             ; Create expanded DFILE
1174   04AF 0E 19           ld c,019h               ; 24 lines + 1 extra NL
1175   04B1 AF              xor a                   ; A = 0 = Space
1176   04B2             
1177   04B2             ; Next line
1178   04B2             l04b2h:
1179   04B2 2B              dec hl
1180   04B3 36 76           ld (hl),076h            ; start / end with newline / halt
1181   04B5 0D              dec c                   ; line counter
1182   04B6 28 08           jr z,l04c0h             ; finished?
1183   04B8             
1184   04B8             ; Fill line
1185   04B8 06 20           ld b,020h               ; fill line with 32 spaces
1186   04BA             l04bah:
1187   04BA 2B              dec hl                  ; step backwards
1188   04BB 77              ld (hl),a               ; write a space
1189   04BC 10 FC           djnz l04bah             ; loop until done
1190   04BE 18 F2           jr l04b2h               ; back for more
1191   04C0             
1192   04C0             ; Set system variables
1193   04C0             l04c0h:
1194   04C0 2A 04 40        ld hl,(04004h)          ; RAMTOP
1195   04C3 2B              dec hl                  ; last system byte
1196   04C4 36 3E           ld (hl),03eh            ; end marker
1197   04C6 2B              dec hl
1198   04C7 F9              ld sp,hl                ; stack here
1199   04C8 2B              dec hl
1200   04C9 2B              dec hl
1201   04CA 22 02 40        ld (04002h),hl          ; ERR_SP, address of top of GOSUB stack
1202   04CD ED 56           im 1                    ; Z80 interrupt mode 1
1203   04CF FD 21 00 40     ld iy,04000h            ; start of SYS VARS
1204   04D3 FD 36 3B 40     ld (iy+03bh),040h       ; CDFLAG - compute and display mode requested
1205   04D7 FD 36 21 19     ld (iy+021h),019h       ; SPARE1 = $40?
1206   04DB AF              xor a
1207   04DC 32 19 40        ld (04019h),a           ; X_PTR_lo = 0
1208   04DF 32 2D 40        ld (0402dh),a           ; FLAGX = 0
1209   04E2 32 01 40        ld (04001h),a           ; FLAGS = 0
1210   04E5 32 7C 40        ld (0407ch),a           ; SPARE3 = 0
1211   04E8 3D              dec a
1212   04E9 32 35 40        ld (04035h),a           ; FRAMES_lo = $FF
1213   04EC             l04ech:
1214   04EC CD 92 16        call sub_1692h          ; CLEAR
1215   04EF CD 50 04        call sub_0450h          ; MAKE-NOISE
1216   04F2 CD 85 02        call sub_0285h          ; SLOW-FAST to set SLOW mode
1217   04F5 3A 06 40        ld a,(04006h)           ; check mode
1218   04F8 1F              rra
1219   04F9 DA 00 20        jp c,02000h             ; autostart expansion ROM?
1220   04FC             
1221   04FC             l04fch:
1222   04FC CD A5 16        call sub_16a5h          ; CURSOR-IN, set cursor on edit line
1223   04FF             
1224   04FF             ; ---------------------------
1225   04FF             ; THE 'BASIC LISTING' SECTION
1226   04FF             ; ---------------------------
1227   04FF             
1228   04FF             ; UPPER
1229   04FF             l04ffh:
1230   04FF CD D0 0B        call sub_0bd0h          ; CLS
1231   0502 2A 29 40        ld hl,(04029h)          ; E.PPC line number with cursor on (was $400A on ZX81)
1232   0505 ED 5B 23 40     ld de,(04023h)
1233   0509 A7              and a
1234   050A ED 52           sbc hl,de
1235   050C EB              ex de,hl
1236   050D 30 04           jr nc,l0513h
1237   050F 19              add hl,de
1238   0510 22 23 40        ld (04023h),hl
1239   0513             
1240   0513             ; ADDR-TOP
1241   0513             l0513h:
1242   0513 CD 6A 0B        call sub_0b6ah
1243   0516 28 01           jr z,l0519h
1244   0518 EB              ex de,hl
1245   0519             
1246   0519             ; LIST-TOP
1247   0519             l0519h:
1248   0519 CD CD 08        call sub_08cdh
1249   051C FD 35 1E        dec (iy+01eh)
1250   051F 20 37           jr nz,l0558h            ; routine LOWER
1251   0521 2A 29 40        ld hl,(04029h)          ; E.PPC line number with cursor on (was $400A on ZX81)
1252   0524 CD 6A 0B        call sub_0b6ah
1253   0527 2A 16 40        ld hl,(04016h)
1254   052A 37              scf
1255   052B ED 52           sbc hl,de
1256   052D 21 23 40        ld hl,04023h
1257   0530 30 0B           jr nc,l053dh
1258   0532 EB              ex de,hl
1259   0533 7E              ld a,(hl)
1260   0534 23              inc hl
1261   0535 ED A0           ldi
1262   0537 12              ld (de),a
1263   0538 18 C5           jr l04ffh
1264   053A             
1265   053A             ; DOWN-KEY
1266   053A             sub_053ah:
1267   053A 21 29 40        ld hl,04029h            ; E.PPC line number with cursor on (was $400A on ZX81)
1268   053D             
1269   053D             ; INC-LINE
1270   053D             l053dh:
1271   053D 5E              ld e,(hl)
1272   053E 23              inc hl
1273   053F 56              ld d,(hl)
1274   0540 E5              push hl
1275   0541 EB              ex de,hl
1276   0542 23              inc hl
1277   0543 CD 6A 0B        call sub_0b6ah
1278   0546 CD 77 06        call sub_0677h
1279   0549 E1              pop hl
1280   054A             
1281   054A             ; KEY-INPUT
1282   054A             l054ah:
1283   054A FD CB 2D 6E     bit 5,(iy+02dh)
1284   054E 20 08           jr nz,l0558h            ; routine LOWER
1285   0550 72              ld (hl),d
1286   0551 2B              dec hl
1287   0552 73              ld (hl),e
1288   0553 18 AA           jr l04ffh
1289   0555             
1290   0555             ; ----------------------------
1291   0555             ; THE 'EDIT LINE COPY' SECTION
1292   0555             ; ----------------------------
1293   0555             
1294   0555             ; EDIT-INP
1295   0555             l0555h:
1296   0555 CD A5 16        call sub_16a5h          ; CURSOR-IN, set cursor on edit line
1297   0558             
1298   0558             ; LOWER
1299   0558             l0558h:
1300   0558 2A 14 40        ld hl,(04014h)
1301   055B             
1302   055B             ; EACH-CHAR
1303   055B             l055bh:
1304   055B 7E              ld a,(hl)
1305   055C FE 7E           cp 07eh
1306   055E 20 08           jr nz,l0568h
1307   0560 01 06 00        ld bc,l0006h
1308   0563 CD F5 0B        call sub_0bf5h          ; routine RECLAIM-2
1309   0566 18 F3           jr l055bh
1310   0568             
1311   0568             ; END-LINE
1312   0568             l0568h:
1313   0568 FE 76           cp 076h
1314   056A 23              inc hl
1315   056B 20 EE           jr nz,l055bh
1316   056D             
1317   056D             ; EDIT-LINE
1318   056D                 ; ZX81 sets K or L here - we don't have that
1319   056D             
1320   056D             ; EDIT-ROOM
1321   056D             l056dh:
1322   056D CD C2 0B        call sub_0bc2h          ; routine LINE-ENDS
1323   0570 2A 14 40        ld hl,(04014h)          ; Get E.LINE, the address of edit line
1324   0573 FD 36 00 FF     ld (iy+000h),0ffh       ; Set error to $FF (OK)
1325   0577 CD FC 08        call sub_08fch          ; routine COPY-LINE
1326   057A FD CB 00 7E     bit 7,(iy+000h)         ; Check if there was an error
1327   057E 20 0D           jr nz,l058dh            ; to DISPLAY-6 if OK
1328   0580 3A 22 40        ld a,(04022h)           ; check DF.SZ, size of editor section
1329   0583 FE 18           cp 018h                 ; is it >24 lines
1330   0585 30 06           jr nc,l058dh            ; to DISPLAY-6
1331   0587 3C              inc a                   ; add a line
1332   0588 32 22 40        ld (04022h),a           ; update value
1333   058B 18 E0           jr l056dh               ; simplified loop back compared to ZX81
1334   058D             
1335   058D             ; --------------------------
1336   058D             ; THE 'WAIT FOR KEY' SECTION
1337   058D             ; --------------------------
1338   058D             
1339   058D             ; DISPLAY-6
1340   058D             l058dh:
1341   058D 21 00 00        ld hl,l0000h            ; clear X.PTR   - Addess of character before syntax error
1342   0590 22 18 40        ld (04018h),hl          ;
1343   0593 21 3B 40        ld hl,0403bh            ; get CDFLAGS
1344   0596 CB 7E           bit 7,(hl)              ; check FAST/SLOW mode
1345   0598 CC 93 02        call z,sub_0293h        ; routine PRE-DISPLAY-1 if FAST
1346   059B             
1347   059B             ; SLOW-DISP
1348   059B             l059bh:
1349   059B CB 46           bit 0,(hl)
1350   059D 28 FC           jr z,l059bh             ; Loop unti bit 0 of (HL) is 1
1351   059F ED 4B 25 40     ld bc,(04025h)
1352   05A3 CD 40 11        call sub_1140h          ; routine DEBOUNCE
1353   05A6 CD 5E 09        call sub_095eh          ; routine DECODE
1354   05A9 30 AD           jr nc,l0558h            ; routine LOWER
1355   05AB FD CB 3B 6E     bit 5,(iy+03bh)         ; Check if we should beep
1356   05AF 20 1D           jr nz,l05ceh
1357   05B1             
1358   05B1             ; KEY-BEEP
1359   05B1 D5              push de                 ; Save DE and HL
1360   05B2 E5              push hl
1361   05B3 CD 70 03        call sub_0370h          ; routine SET-FAST
1362   05B6 C6 14           add a,014h              ; add $14 to the key value
1363   05B8 5F              ld e,a                  ; set the note to that
1364   05B9 01 CE 04        ld bc,004ceh            ; set the duration to 18.9ms
1365   05BC FD CB 28 6E     bit 5,(iy+028h)         ; test bit 5 of MARGIN to check region
1366   05C0 20 03           jr nz,l05c5h            ; skip if PAL
1367   05C2 01 06 04        ld bc,00406h            ; change duration to 15.9ms
1368   05C5             l05c5h:
1369   05C5 CD 60 04        call l0460h             ; Routine PLAY-NOTE
1370   05C8 CD 85 02        call sub_0285h          ; FAST/SLOW
1371   05CB E1              pop hl                  ; restore DE and HL
1372   05CC D1              pop de
1373   05CD 7B              ld a,e                  ; and A is restored to what it was + $14 (is that intentional?)
1374   05CE             
1375   05CE             ; variation on FETCH-2
1376   05CE             l05ceh:
1377   05CE FD CB 01 56     bit 2,(iy+001h)         ; Check FLAG K mode = 0, L = 1
1378   05D2 28 08           jr z,l05dch             ; skip for K mode
1379   05D4 FE 28           cp 028h                 ; check for ?
1380   05D6 38 1A           jr c,l05f2h             ; skip
1381   05D8 21 A1 00        ld hl,000a1h
1382   05DB 19              add hl,de
1383   05DC             
1384   05DC             ; FETCH-3
1385   05DC             l05dch:
1386   05DC 7E              ld a,(hl)
1387   05DD             
1388   05DD             ; TEST-CURS
1389   05DD             l05ddh:
1390   05DD FE F0           cp 0f0h
1391   05DF EA FB 05        jp pe,l05fbh            ; routine KEY-SORT
1392   05E2             
1393   05E2             ; ENTER
1394   05E2 5F              ld e,a
1395   05E3 CD 05 06        call sub_0605h          ; routine CURSOR
1396   05E6 7B              ld a,e
1397   05E7 CD ED 05        call sub_05edh          ; routine ADD-CHAR
1398   05EA             
1399   05EA             ; BACK-NEXT
1400   05EA             l05eah:
1401   05EA C3 58 05        jp l0558h               ; back to LOWER
1402   05ED             
1403   05ED             ; ------------------------------
1404   05ED             ; THE 'ADD CHARACTER' SUBROUTINE
1405   05ED             ; ------------------------------
1406   05ED             
1407   05ED             ; ADD-CHAR
1408   05ED             sub_05edh:
1409   05ED CD 2D 0B        call sub_0b2dh
1410   05F0 12              ld (de),a
1411   05F1 C9              ret
1412   05F2             
1413   05F2             ; more variation on FETCH-2
1414   05F2             l05f2h:
1415   05F2 7E              ld a,(hl)
1416   05F3 FE 76           cp 076h                 ; check for NEWLINE
1417   05F5 CB FF           set 7,a
1418   05F7 20 E4           jr nz,l05ddh            ; routine TEST-CURS
1419   05F9 3E 78           ld a,078h
1420   05FB             
1421   05FB             ; KEY-SORT
1422   05FB             l05fbh:
1423   05FB 5F              ld e,a                  ; DE = key
1424   05FC 21 38 05        ld hl,l0618h - $E0      ; reference to ED-KEYS table
1425   05FF 19              add hl,de               ; HL = table base - $E0 + 2x key
1426   0600 19              add hl,de
1427   0601 4E              ld c,(hl)               ; BC = function address
1428   0602 23              inc hl
1429   0603 46              ld b,(hl)
1430   0604 C5              push bc                 ; push handler function onto stack
1431   0605             
1432   0605             ; CURSOR
1433   0605             sub_0605h:
1434   0605 2A 14 40        ld hl,(04014h)
1435   0608             
1436   0608             ; cut down version of TEST-CHAR
1437   0608             l0608h:
1438   0608 7E              ld a,(hl)
1439   0609 FE 7F           cp 07fh
1440   060B C8              ret z
1441   060C 23              inc hl
1442   060D CD 55 09        call sub_0955h
1443   0610 18 F6           jr l0608h
1444   0612             
1445   0612             ; --------------------------
1446   0612             ; THE 'CLEAR-ONE' SUBROUTINE
1447   0612             ; --------------------------
1448   0612             
1449   0612             ; CLEAR-ONE
1450   0612             sub_0612h:
1451   0612 01 01 00        ld bc,$0001
1452   0615 C3 F5 0B        jp sub_0bf5h            ; routine RECLAIM-2
1453   0618             
1454   0618             ; ------------------------
1455   0618             ; THE 'EDITING KEYS' TABLE
1456   0618             ; ------------------------
1457   0618             
1458   0618             ; ED-KEYS
1459   0618             l0618h:
1460   0618 57 06           .word sub_0657h         ; UP_KEY
1461   061A 3A 05           .word sub_053ah         ; DOWN-KEY
1462   061C 2E 06           .word sub_062eh         ; LEFT-KEY
1463   061E 37 06           .word sub_0637h         ; RIGHT-KEY
1464   0620 67 06           .word sub_0667h         ; SET-L-MODE
1465   0622 80 06           .word sub_0680h         ; EDIT-KEY
1466   0624 13 07           .word sub_0713h         ; NEWLINE-KEY
1467   0626 43 06           .word sub_0643h         ; RUBOUT
1468   0628 6D 06           .word sub_066dh         ; SET-K-MODE
1469   062A 00 07           .word sub_0700h         ; FUNCTION
1470   062C C8 06           .word sub_06c8h         ; FUNCTION
1471   062E             
1472   062E             ; -------------------------
1473   062E             ; THE 'CURSOR LEFT' ROUTINE
1474   062E             ; -------------------------
1475   062E             
1476   062E             ; LEFT-KEY
1477   062E             sub_062eh:
1478   062E CD 4B 06        call sub_064bh          ; routine LEFT-EDGE
1479   0631 7E              ld a,(hl)
1480   0632 36 7F           ld (hl),07fh
1481   0634 23              inc hl
1482   0635 18 09           jr l0640h
1483   0637             
1484   0637             ; --------------------------
1485   0637             ; THE 'CURSOR RIGHT' ROUTINE
1486   0637             ; --------------------------
1487   0637             
1488   0637             ; RIGHT-KEY
1489   0637             sub_0637h:
1490   0637 23              inc hl
1491   0638 7E              ld a,(hl)
1492   0639 FE 76           cp 076h
1493   063B 28 18           jr z,l0655h             ; routine ENDED-2
1494   063D 36 7F           ld (hl),07fh
1495   063F 2B              dec hl
1496   0640             
1497   0640             ; GET-CODE
1498   0640             l0640h:
1499   0640 77              ld (hl),a
1500   0641             
1501   0641             ; ENDED-1
1502   0641             l0641h:
1503   0641 18 A7           jr l05eah
1504   0643             
1505   0643             ; --------------------
1506   0643             ; THE 'RUBOUT' ROUTINE
1507   0643             ; --------------------
1508   0643             
1509   0643             ; RUBOUT
1510   0643             sub_0643h:
1511   0643 CD 4B 06        call sub_064bh
1512   0646 CD 12 06        call sub_0612h
1513   0649 18 F6           jr l0641h
1514   064B             
1515   064B             ; ------------------------
1516   064B             ; THE 'ED-EDGE' SUBROUTINE
1517   064B             ; ------------------------
1518   064B             
1519   064B             ; LEFT-EDGE
1520   064B             sub_064bh:
1521   064B 2B              dec hl
1522   064C ED 5B 14 40     ld de,(04014h)
1523   0650 1A              ld a,(de)
1524   0651 FE 7F           cp 07fh
1525   0653 C0              ret nz
1526   0654 D1              pop de
1527   0655             
1528   0655             ; ENDED-2
1529   0655             l0655h:
1530   0655 18 EA           jr l0641h
1531   0657             
1532   0657             ; -----------------------
1533   0657             ; THE 'CURSOR UP' ROUTINE
1534   0657             ; -----------------------
1535   0657             
1536   0657             ; UP-KEY
1537   0657             sub_0657h:
1538   0657 2A 29 40        ld hl,(04029h)          ; E.PPC line number with cursor on (was $400A on ZX81)
1539   065A CD 6A 0B        call sub_0b6ah
1540   065D EB              ex de,hl
1541   065E CD 77 06        call sub_0677h
1542   0661 21 2A 40        ld hl,0402ah
1543   0664 C3 4A 05        jp l054ah
1544   0667             
1545   0667             
1546   0667             ; --------------------------
1547   0667             ; THE 'FUNCTION KEY' ROUTINE
1548   0667             ; --------------------------
1549   0667             
1550   0667             ; Alternatives to the FUNCTION key routine
1551   0667             
1552   0667             ; SET-L-MODE
1553   0667             sub_0667h:
1554   0667 FD CB 01 D6     set 2,(iy+001h)         ; Enter L mode
1555   066B 18 E8           jr l0655h
1556   066D             
1557   066D             ; SET-K-MODE
1558   066D             sub_066dh:
1559   066D FD CB 01 96     res 2,(iy+001h)         ; Enter K mode
1560   0671 18 E2           jr l0655h
1561   0673             
1562   0673             ; ------------------------------------
1563   0673             ; THE 'COLLECT LINE NUMBER' SUBROUTINE
1564   0673             ; ------------------------------------
1565   0673             
1566   0673             ; ZERO-DE
1567   0673             l0673h:
1568   0673 EB              ex de,hl
1569   0674 11 8E 05        ld de,l058dh+1
1570   0677             
1571   0677             ; LINE-NO
1572   0677             sub_0677h:
1573   0677 7E              ld a,(hl)
1574   0678 E6 C0           and 0c0h
1575   067A 20 F7           jr nz,l0673h
1576   067C 56              ld d,(hl)
1577   067D 23              inc hl
1578   067E 5E              ld e,(hl)
1579   067F C9              ret
1580   0680             
1581   0680             ; ----------------------
1582   0680             ; THE 'EDIT KEY' ROUTINE
1583   0680             ; ----------------------
1584   0680             
1585   0680             ; EDIT-KEY
1586   0680             sub_0680h:
1587   0680 CD C2 0B        call sub_0bc2h          ; routine LINE-ENDS
1588   0683 21 55 05        ld hl,l0555h
1589   0686 E5              push hl
1590   0687 FD CB 2D 6E     bit 5,(iy+02dh)
1591   068B C0              ret nz
1592   068C 2A 14 40        ld hl,(04014h)
1593   068F 22 0E 40        ld (0400eh),hl
1594   0692 21 21 18        ld hl,01821h
1595   0695 22 39 40        ld (04039h),hl
1596   0698 2A 29 40        ld hl,(04029h)          ; E.PPC line number with cursor on (was $400A on ZX81)
1597   069B CD 6A 0B        call sub_0b6ah
1598   069E CD 77 06        call sub_0677h
1599   06A1 7A              ld a,d
1600   06A2 B3              or e
1601   06A3 C8              ret z
1602   06A4 2B              dec hl
1603   06A5 CD 35 0C        call sub_0c35h
1604   06A8 23              inc hl
1605   06A9 4E              ld c,(hl)
1606   06AA 23              inc hl
1607   06AB 46              ld b,(hl)
1608   06AC 23              inc hl
1609   06AD ED 5B 0E 40     ld de,(0400eh)
1610   06B1 3E 7F           ld a,07fh
1611   06B3 12              ld (de),a
1612   06B4 13              inc de
1613   06B5 E5              push hl
1614   06B6 21 1D 00        ld hl,0001dh
1615   06B9 19              add hl,de
1616   06BA 09              add hl,bc
1617   06BB ED 72           sbc hl,sp
1618   06BD E1              pop hl
1619   06BE D0              ret nc
1620   06BF ED B0           ldir
1621   06C1 EB              ex de,hl
1622   06C2             l06c2h:
1623   06C2 D1              pop de
1624   06C3 CD 9E 16        call sub_169eh
1625   06C6             l06c6h:
1626   06C6 18 8D           jr l0655h
1627   06C8                 ; ZX81 dropped through to N/L-KEY here
1628   06C8             
1629   06C8             ; ----------------------
1630   06C8             ; THE 'EDIT KEY' ROUTINE
1631   06C8             ; ----------------------
1632   06C8             
1633   06C8             ; variation on EDIT-KEY
1634   06C8             sub_06c8h:
1635   06C8 FD CB 2D 6E     bit 5,(iy+02dh)         ; test FLAGX
1636   06CC 20 F8           jr nz,l06c6h            ; jump back if in INPUT mode
1637   06CE             
1638   06CE 21 55 05        ld hl,l0555h            ; address of EDIT-INP routine
1639   06D1 E5              push hl                 ; pushed onto stack
1640   06D2             
1641   06D2 2A 14 40        ld hl,(04014h)          ; fetch E-LINE
1642   06D5 22 0E 40        ld (0400eh),hl          ; update cursor DF-CC
1643   06D8             
1644   06D8 21 21 18        ld hl,01821h            ; line 0, column 0
1645   06DB 22 39 40        ld (04039h),hl          ; update S-POSN
1646   06DE             
1647   06DE 2A 29 40        ld hl,(04029h)          ; fetch E.PPC line number with cursor on (was $400A on ZX81)
1648   06E1 01 0A 00        ld bc,000Ah
1649   06E4 09              add hl,bc
1650   06E5 44              ld b,h
1651   06E6 4D              ld c,l
1652   06E7 21 0F 27        ld hl,0270fh
1653   06EA A7              and a
1654   06EB ED 42           sbc hl,bc
1655   06ED 30 03           jr nc,l06f2h
1656   06EF 01 0F 27        ld bc,0270fh
1657   06F2             l06f2h:
1658   06F2 CD 2D 0C        call sub_0c2dh          ; OUT-NUM, print line number
1659   06F5 2A 0E 40        ld hl,(0400eh)
1660   06F8 36 7F           ld (hl),07fh
1661   06FA 23              inc hl
1662   06FB 36 76           ld (hl),076h
1663   06FD 23              inc hl
1664   06FE 18 C2           jr l06c2h
1665   0700             
1666   0700             ; ?
1667   0700             sub_0700h:
1668   0700 21 2D 40        ld hl,0402dh            ; FLAGX
1669   0703 CB 6E           bit 5,(hl)              ; check bit 5
1670   0705 CA FC 04        jp z,l04fch
1671   0708 CB AE           res 5,(hl)
1672   070A CD C2 0B        call sub_0bc2h          ; routine LINE-ENDS
1673   070D 21 00 40        ld hl,04000h
1674   0710 C3 BC 07        jp l07bch
1675   0713             
1676   0713             ; -------------------------
1677   0713             ; THE 'NEWLINE KEY' ROUTINE
1678   0713             ; -------------------------
1679   0713             
1680   0713             ; sort of N/L-KEY
1681   0713             sub_0713h:
1682   0713 CD C2 0B        call sub_0bc2h          ; routine LINE-ENDS
1683   0716 21 58 05        ld hl,l0558h            ; routine LOWER
1684   0719 FD CB 2D 6E     bit 5,(iy+02dh)         ; check FLAGS
1685   071D 20 03           jr nz,l0722h
1686   071F 21 FF 04        ld hl,l04ffh
1687   0722             
1688   0722             l0722h:
1689   0722 E5              push hl
1690   0723 CD 4A 08        call sub_084ah
1691   0726 FD CB 2D 6E     bit 5,(iy+02dh)
1692   072A 20 0E           jr nz,l073ah
1693   072C 2A 14 40        ld hl,(04014h)
1694   072F 7E              ld a,(hl)
1695   0730 FE FF           cp 0ffh
1696   0732 28 06           jr z,l073ah
1697   0734 CD 81 0A        call sub_0a81h
1698   0737 CD D0 0B        call sub_0bd0h          ; CLS
1699   073A             
1700   073A             ; Similar to NOW_SCAN
1701   073A             l073ah:
1702   073A CD 3B 0E        call sub_0e3bh
1703   073D E1              pop hl
1704   073E CD 05 06        call sub_0605h
1705   0741 CD 12 06        call sub_0612h
1706   0744 CD 08 0C        call sub_0c08h
1707   0747 20 14           jr nz,l075dh
1708   0749 78              ld a,b
1709   074A B1              or c
1710   074B C2 09 08        jp nz,l0809h
1711   074E 0B              dec bc
1712   074F 0B              dec bc
1713   0750 ED 43 07 40     ld (04007h),bc
1714   0754 FD 36 22 02     ld (iy+022h),002h
1715   0758 11 7D 40        ld de,0407dh            ; Hard coded DFILE location
1716   075B 18 13           jr l0770h
1717   075D             
1718   075D             ; N/L-INP
1719   075D             l075dh:
1720   075D FE 76           cp 076h
1721   075F 28 12           jr z,l0773h
1722   0761 ED 4B 30 40     ld bc,(04030h)
1723   0765 CD B7 0A        call sub_0ab7h          ; routine LOC-ADDR
1724   0768 ED 5B 0A 40     ld de,(0400ah)
1725   076C FD 36 22 02     ld (iy+022h),002h
1726   0770             
1727   0770             ; TEST-NULL
1728   0770             l0770h:
1729   0770 DF              rst 18h
1730   0771 FE 76           cp 076h
1731   0773             
1732   0773             ; N/L-NULL
1733   0773             l0773h:
1734   0773 CA FC 04        jp z,l04fch
1735   0776 FD 36 01 81     ld (iy+001h),081h
1736   077A EB              ex de,hl
1737   077B             
1738   077B             ; NEXT-LINE
1739   077B             l077bh:
1740   077B 22 0A 40        ld (0400ah),hl          ; NXTLIN - Address of next line to be executed (ZX81 was $4029)
1741   077E EB              ex de,hl
1742   077F CD 4E 00        call sub_004eh
1743   0782 CD 42 0E        call sub_0e42h
1744   0785 FD CB 01 8E     res 1,(iy+001h)
1745   0789 3E C0           ld a,0c0h
1746   078B FD 36 19 00     ld (iy+019h),000h
1747   078F CD 9B 16        call sub_169bh
1748   0792 FD CB 2D AE     res 5,(iy+02dh)
1749   0796 FD CB 00 7E     bit 7,(iy+000h)
1750   079A 28 22           jr z,l07beh
1751   079C 2A 0A 40        ld hl,(0400ah)          ; NXTLIN - Address of next line to be executed (ZX81 was $4029)
1752   079F A6              and (hl)
1753   07A0 20 1C           jr nz,l07beh
1754   07A2 56              ld d,(hl)
1755   07A3 23              inc hl
1756   07A4 5E              ld e,(hl)
1757   07A5 ED 53 07 40     ld (04007h),de
1758   07A9 23              inc hl
1759   07AA 5E              ld e,(hl)
1760   07AB 23              inc hl
1761   07AC 56              ld d,(hl)
1762   07AD 23              inc hl
1763   07AE EB              ex de,hl
1764   07AF 19              add hl,de
1765   07B0 CD 3B 11        call sub_113bh
1766   07B3 38 C6           jr c,l077bh
1767   07B5 21 00 40        ld hl,04000h
1768   07B8 CB 7E           bit 7,(hl)
1769   07BA 28 02           jr z,l07beh
1770   07BC             l07bch:
1771   07BC 36 0C           ld (hl),00ch
1772   07BE             
1773   07BE             ; STOP-LINE
1774   07BE             l07beh:
1775   07BE FD CB 38 7E     bit 7,(iy+038h)
1776   07C2 CC 11 0A        call z,sub_0a11h
1777   07C5 01 21 01        ld bc,00121h
1778   07C8 CD B7 0A        call sub_0ab7h          ; routine LOC-ADDR
1779   07CB 3A 00 40        ld a,(04000h)
1780   07CE ED 4B 07 40     ld bc,(04007h)
1781   07D2 3C              inc a
1782   07D3 28 0C           jr z,l07e1h
1783   07D5 FE 09           cp 009h
1784   07D7 20 01           jr nz,l07dah
1785   07D9 03              inc bc
1786   07DA             
1787   07DA             ; CONTINUE
1788   07DA             l07dah:
1789   07DA ED 43 2B 40     ld (0402bh),bc          ; Set OLDPPC
1790   07DE 20 01           jr nz,l07e1h
1791   07E0 0B              dec bc
1792   07E1             
1793   07E1             ; REPORT (different to ZX81)
1794   07E1             l07e1h:
1795   07E1 07              rlca                    ; a = 2 * error code
1796   07E2 5F              ld e,a
1797   07E3 16 00           ld d,000h
1798   07E5 21 F2 01        ld hl,l01f2h            ; address of error code table
1799   07E8 19              add hl,de               ; HL = table + 2 * error code
1800   07E9             
1801   07E9 7E              ld a,(hl)               ; print the first letter of the error code
1802   07EA D7              rst 10h
1803   07EB             
1804   07EB 23              inc hl                  ; print the second letter of the error code
1805   07EC 7E              ld a,(hl)
1806   07ED D7              rst 10h
1807   07EE             
1808   07EE CB 78           bit 7,b                 ; check bit 7 of return address (check for immediate mode?)
1809   07F0 20 0E           jr nz,l0800h
1810   07F2             
1811   07F2             ; IN_LINE
1812   07F2 1E 04           ld e,004h               ; 4 characters
1813   07F4 21 12 02        ld hl,l0212h            ; table containing " IN "
1814   07F7             l07f7h:
1815   07F7 7E              ld a,(hl)               ; get character
1816   07F8 23              inc hl
1817   07F9 D7              rst 10h                 ; print character
1818   07FA 1D              dec e
1819   07FB 20 FA           jr nz,l07f7h            ; loop until all done
1820   07FD             
1821   07FD CD 2D 0C        call sub_0c2dh          ; OUT-NUM, print line number
1822   0800             l0800h:
1823   0800 CD A5 16        call sub_16a5h          ; CURSOR-IN, set cursor on edit line
1824   0803 CD 40 11        call sub_1140h          ; routine DEBOUNCE
1825   0806 C3 8D 05        jp l058dh
1826   0809             
1827   0809             ; N/L-LINE (sort of)
1828   0809             l0809h:
1829   0809 ED 43 29 40     ld (04029h),bc          ; E.PPC line number with cursor on (was $400A on ZX81)
1830   080D 2A 16 40        ld hl,(04016h)
1831   0810 EB              ex de,hl
1832   0811 21 FC 04        ld hl,l04fch
1833   0814 E5              push hl
1834   0815 2A 1A 40        ld hl,(0401ah)
1835   0818 ED 52           sbc hl,de
1836   081A E5              push hl
1837   081B 60              ld h,b
1838   081C 69              ld l,c
1839   081D CD 6A 0B        call sub_0b6ah
1840   0820 20 06           jr nz,l0828h
1841   0822 CD 84 0B        call sub_0b84h
1842   0825 CD F5 0B        call sub_0bf5h          ; routine RECLAIM-2
1843   0828             
1844   0828             ; COPY-OVER
1845   0828             l0828h:
1846   0828 C1              pop bc
1847   0829 79              ld a,c
1848   082A 3D              dec a
1849   082B B0              or b
1850   082C C8              ret z
1851   082D C5              push bc
1852   082E 03              inc bc
1853   082F 03              inc bc
1854   0830 03              inc bc
1855   0831 03              inc bc
1856   0832 CD 30 0B        call sub_0b30h          ; MAKE-ROOM
1857   0835 C1              pop bc
1858   0836 C5              push bc
1859   0837 2A 1A 40        ld hl,(0401ah)
1860   083A 2B              dec hl
1861   083B ED B8           lddr
1862   083D 2A 29 40        ld hl,(04029h)          ; E.PPC line number with cursor on (was $400A on ZX81)
1863   0840 EB              ex de,hl
1864   0841 C1              pop bc
1865   0842 70              ld (hl),b
1866   0843 2B              dec hl
1867   0844 71              ld (hl),c
1868   0845 2B              dec hl
1869   0846 73              ld (hl),e
1870   0847 2B              dec hl
1871   0848 72              ld (hl),d
1872   0849 C9              ret
1873   084A             
1874   084A             ; Not LLIST ?
1875   084A             sub_084ah:
1876   084A 2A 14 40        ld hl,(04014h)
1877   084D             l084dh:
1878   084D 22 16 40        ld (04016h),hl
1879   0850 DF              rst 18h
1880   0851             l0851h:
1881   0851 FE 0B           cp 00bh
1882   0853 20 0A           jr nz,l085fh
1883   0855             l0855h:
1884   0855 E7              rst 20h
1885   0856 FE 0B           cp 00bh
1886   0858 28 1B           jr z,l0875h
1887   085A FE 76           cp 076h
1888   085C C8              ret z
1889   085D 18 F6           jr l0855h
1890   085F             l085fh:
1891   085F FE 76           cp 076h
1892   0861 C8              ret z
1893   0862 11 F1 00        ld de,l00f1h            ; token table
1894   0865 0E 00           ld c,000h
1895   0867 18 0F           jr l0878h
1896   0869             l0869h:
1897   0869 1A              ld a,(de)
1898   086A CB 7F           bit 7,a
1899   086C 13              inc de
1900   086D 28 FA           jr z,l0869h
1901   086F 0C              inc c
1902   0870 3E 45           ld a,045h
1903   0872 B9              cp c
1904   0873 30 03           jr nc,l0878h
1905   0875             l0875h:
1906   0875 E7              rst 20h
1907   0876 18 D9           jr l0851h
1908   0878             l0878h:
1909   0878 2A 16 40        ld hl,(04016h)
1910   087B             l087bh:
1911   087B 1A              ld a,(de)
1912   087C 47              ld b,a
1913   087D E6 7F           and 07fh
1914   087F BE              cp (hl)
1915   0880 20 E7           jr nz,l0869h
1916   0882 23              inc hl
1917   0883 13              inc de
1918   0884 CB 78           bit 7,b
1919   0886 28 F3           jr z,l087bh
1920   0888             l0888h:
1921   0888 7E              ld a,(hl)
1922   0889 A7              and a
1923   088A 20 03           jr nz,l088fh
1924   088C 23              inc hl
1925   088D 18 F9           jr l0888h
1926   088F             l088fh:
1927   088F ED 5B 16 40     ld de,(04016h)
1928   0893 22 16 40        ld (04016h),hl
1929   0896 2A 14 40        ld hl,(04014h)
1930   0899 A7              and a
1931   089A             l089ah:
1932   089A ED 52           sbc hl,de
1933   089C 19              add hl,de
1934   089D 30 06           jr nc,l08a5h
1935   089F 1B              dec de
1936   08A0 1A              ld a,(de)
1937   08A1 A7              and a
1938   08A2 28 F6           jr z,l089ah
1939   08A4 13              inc de
1940   08A5             l08a5h:
1941   08A5 79              ld a,c
1942   08A6 CB 77           bit 6,a
1943   08A8 20 02           jr nz,l08ach
1944   08AA F6 C0           or 0c0h
1945   08AC             l08ach:
1946   08AC 12              ld (de),a
1947   08AD 13              inc de
1948   08AE 2A 16 40        ld hl,(04016h)
1949   08B1 F5              push af
1950   08B2 CD F2 0B        call sub_0bf2h
1951   08B5 F1              pop af
1952   08B6 FE EA           cp 0eah
1953   08B8 C8              ret z
1954   08B9 18 92           jr l084dh
1955   08BB             
1956   08BB             ; ---------------------------------------
1957   08BB             ; THE 'LIST' AND 'LLIST' COMMAND ROUTINES
1958   08BB             ; ---------------------------------------
1959   08BB             
1960   08BB             ; LLIST
1961   08BB             sub_08bbh:
1962   08BB FD CB 01 CE     set 1,(iy+001h)
1963   08BF             
1964   08BF             ; LIST
1965   08BF             sub_08bfh:
1966   08BF CD 88 10        call sub_1088h
1967   08C2 78              ld a,b
1968   08C3 E6 3F           and 03fh
1969   08C5 67              ld h,a
1970   08C6 69              ld l,c
1971   08C7 22 29 40        ld (04029h),hl          ; E.PPC line number with cursor on (was $400A on ZX81)
1972   08CA CD 6A 0B        call sub_0b6ah
1973   08CD             
1974   08CD             ; LIST-PROG
1975   08CD             sub_08cdh:
1976   08CD 1E 00           ld e,000h
1977   08CF             
1978   08CF             ; UNTIL-END
1979   08CF             l08cfh:
1980   08CF CD D4 08        call sub_08d4h
1981   08D2 18 FB           jr l08cfh
1982   08D4             
1983   08D4             ; -----------------------------------
1984   08D4             ; THE 'PRINT A BASIC LINE' SUBROUTINE
1985   08D4             ; -----------------------------------
1986   08D4             
1987   08D4             ; OUT-LINE
1988   08D4             sub_08d4h:
1989   08D4 ED 4B 29 40     ld bc,(04029h)          ; E.PPC line number with cursor on (was $400A on ZX81)
1990   08D8 CD 7C 0B        call sub_0b7ch
1991   08DB 16 97           ld d,097h
1992   08DD 28 05           jr z,l08e4h
1993   08DF 11 00 00        ld de,l0000h
1994   08E2 CB 13           rl e
1995   08E4             
1996   08E4             ; TEST-END
1997   08E4             l08e4h:
1998   08E4 FD 73 1E        ld (iy+01eh),e
1999   08E7 7E              ld a,(hl)
2000   08E8 FE 40           cp 040h
2001   08EA C1              pop bc
2002   08EB D0              ret nc
2003   08EC C5              push bc                 ; rest of function different to ZX81
2004   08ED 22 16 40        ld (04016h),hl          ; CH.ADD - Address of next character to interpret
2005   08F0 CD 35 0C        call sub_0c35h
2006   08F3 7A              ld a,d
2007   08F4 D7              rst 10h
2008   08F5 2A 16 40        ld hl,(04016h)
2009   08F8 23              inc hl
2010   08F9 23              inc hl
2011   08FA 23              inc hl
2012   08FB 23              inc hl
2013   08FC             
2014   08FC             ; COPY-LINE
2015   08FC             sub_08fch:
2016   08FC 22 16 40        ld (04016h),hl
2017   08FF FD CB 01 C6     set 0,(iy+001h)
2018   0903             
2019   0903             ; MORE-LINE
2020   0903             l0903h:
2021   0903 ED 4B 18 40     ld bc,(04018h)
2022   0907 2A 16 40        ld hl,(04016h)
2023   090A A7              and a
2024   090B ED 42           sbc hl,bc
2025   090D 20 09           jr nz,l0918h
2026   090F 3E AA           ld a,0aah               ; Inverse E
2027   0911 D7              rst 10h                 ; print character
2028   0912             
2029   0912 CD 4D 09        call sub_094dh          ; SET-CURSOR
2030   0915 CD 50 04        call sub_0450h          ; MAKE-NOISE
2031   0918             
2032   0918             ; TEST-NUM
2033   0918             l0918h:
2034   0918 2A 16 40        ld hl,(04016h)
2035   091B 7E              ld a,(hl)
2036   091C 23              inc hl
2037   091D CD 55 09        call sub_0955h
2038   0920 22 16 40        ld (04016h),hl
2039   0923 28 DE           jr z,l0903h
2040   0925 FE 7F           cp 07fh
2041   0927 28 10           jr z,l0939h
2042   0929 FE 76           cp 076h
2043   092B 28 62           jr z,l098fh
2044   092D CB 77           bit 6,a
2045   092F 28 05           jr z,l0936h
2046   0931 CD D7 0A        call sub_0ad7h
2047   0934 18 CD           jr l0903h
2048   0936             
2049   0936             ; NOT-TOKEN
2050   0936             l0936h:
2051   0936 D7              rst 10h
2052   0937 18 CA           jr l0903h
2053   0939             
2054   0939             ; different to ZX81 from here
2055   0939             l0939h:
2056   0939 3E 80           ld a,080h
2057   093B FD CB 01 56     bit 2,(iy+001h)
2058   093F 28 02           jr z,l0943h
2059   0941 3E AC           ld a,0ach
2060   0943             l0943h:
2061   0943 05              dec b
2062   0944 04              inc b
2063   0945 CC 4A 09        call z,sub_094ah
2064   0948 18 B9           jr l0903h
2065   094A             sub_094ah:
2066   094A CD 96 09        call l0996h
2067   094D             
2068   094D             ; SET-CURSOR
2069   094D             sub_094dh:
2070   094D 2A 0E 40        ld hl,(0400eh)          ; get current character address
2071   0950 2B              dec hl                  ; move one before that
2072   0951 22 7B 40        ld (0407bh),hl          ; set the blinking cursor to that address
2073   0954 C9              ret
2074   0955             
2075   0955             ; -----------------------
2076   0955             ; THE 'NUMBER' SUBROUTINE
2077   0955             ; -----------------------
2078   0955             
2079   0955             ; NUMBER
2080   0955             sub_0955h:
2081   0955 FE 7E           cp 07eh
2082   0957 C0              ret nz
2083   0958 23              inc hl
2084   0959 23              inc hl
2085   095A 23              inc hl
2086   095B 23              inc hl
2087   095C 23              inc hl
2088   095D C9              ret
2089   095E             
2090   095E             ; --------------------------------
2091   095E             ; THE 'KEYBOARD DECODE' SUBROUTINE
2092   095E             ; --------------------------------
2093   095E             
2094   095E             ; DECODE
2095   095E             sub_095eh:
2096   095E 16 00           ld d,000h
2097   0960 CB 28           sra b
2098   0962 9F              sbc a,a
2099   0963 F6 26           or 026h
2100   0965 2E 05           ld l,005h
2101   0967 95              sub l
2102   0968             
2103   0968             ; KEY-LINE
2104   0968             l0968h:
2105   0968 85              add a,l
2106   0969 37              scf
2107   096A CB 19           rr c
2108   096C 38 FA           jr c,l0968h
2109   096E 0C              inc c
2110   096F C0              ret nz
2111   0970 48              ld c,b
2112   0971 2D              dec l
2113   0972 2E 01           ld l,001h
2114   0974 20 F2           jr nz,l0968h
2115   0976 21 7A 00        ld hl,0007ah
2116   0979 5F              ld e,a
2117   097A 19              add hl,de
2118   097B 37              scf
2119   097C C9              ret
2120   097D             
2121   097D             ; -------------------------
2122   097D             ; THE 'PRINTING' SUBROUTINE
2123   097D             ; -------------------------
2124   097D             
2125   097D             ; LEAD-SP
2126   097D             l097dh:
2127   097D 7B              ld a,e
2128   097E A7              and a
2129   097F F8              ret m
2130   0980 18 10           jr l0992h
2131   0982             
2132   0982             ; OUT-DIGIT
2133   0982             sub_0982h:
2134   0982 AF              xor a
2135   0983             
2136   0983             ; DIGIT-INC
2137   0983             l0983h:
2138   0983 09              add hl,bc
2139   0984 3C              inc a
2140   0985 38 FC           jr c,l0983h
2141   0987 ED 42           sbc hl,bc
2142   0989 3D              dec a
2143   098A 28 F1           jr z,l097dh
2144   098C             
2145   098C             ; OUT-CODE
2146   098C             sub_098ch:
2147   098C 1E 1C           ld e,01ch
2148   098E 83              add a,e
2149   098F             
2150   098F             ; OUT-CH
2151   098F             l098fh:
2152   098F A7              and a
2153   0990 28 04           jr z,l0996h
2154   0992             
2155   0992             ; PRINT-CH
2156   0992             l0992h:
2157   0992 FD CB 01 86     res 0,(iy+001h)
2158   0996             
2159   0996             ; PRINT-SP
2160   0996             l0996h:
2161   0996 D9              exx
2162   0997 E5              push hl
2163   0998 FD CB 01 4E     bit 1,(iy+001h)
2164   099C 20 05           jr nz,l09a3h
2165   099E CD A9 09        call sub_09a9h
2166   09A1 18 03           jr l09a6h
2167   09A3             
2168   09A3             ; LPRINT-A
2169   09A3             l09a3h:
2170   09A3 CD F2 09        call sub_09f2h
2171   09A6             
2172   09A6             ; PRINT-EXX
2173   09A6             l09a6h:
2174   09A6 E1              pop hl
2175   09A7 D9              exx
2176   09A8 C9              ret
2177   09A9             
2178   09A9             ; ENTER-CH
2179   09A9             sub_09a9h:
2180   09A9 57              ld d,a
2181   09AA ED 4B 39 40     ld bc,(04039h)
2182   09AE 79              ld a,c
2183   09AF FE 21           cp 021h
2184   09B1 28 1A           jr z,l09cdh
2185   09B3             
2186   09B3             ; TEST-N/L
2187   09B3             l09b3h:
2188   09B3 3E 76           ld a,076h
2189   09B5 BA              cp d
2190   09B6 28 30           jr z,l09e8h
2191   09B8 2A 0E 40        ld hl,(0400eh)
2192   09BB BE              cp (hl)
2193   09BC 7A              ld a,d
2194   09BD 20 20           jr nz,l09dfh
2195   09BF 0D              dec c
2196   09C0 20 19           jr nz,l09dbh
2197   09C2 23              inc hl
2198   09C3 22 0E 40        ld (0400eh),hl
2199   09C6 0E 21           ld c,021h
2200   09C8 05              dec b
2201   09C9 ED 43 39 40     ld (04039h),bc
2202   09CD             
2203   09CD             ; TEST-LOW
2204   09CD             l09cdh:
2205   09CD 78              ld a,b
2206   09CE FD BE 22        cp (iy+022h)
2207   09D1 28 03           jr z,l09d6h
2208   09D3 A7              and a
2209   09D4 20 DD           jr nz,l09b3h
2210   09D6             
2211   09D6             ; REPORT-5
2212   09D6             l09d6h:
2213   09D6 2E 04           ld l,004h
2214   09D8 C3 59 00        jp l0059h
2215   09DB             
2216   09DB             ; EXPAND-1
2217   09DB             l09dbh:
2218   09DB CD 2D 0B        call sub_0b2dh
2219   09DE EB              ex de,hl
2220   09DF             
2221   09DF             ; WRITE-CH
2222   09DF             l09dfh:
2223   09DF 77              ld (hl),a
2224   09E0 23              inc hl
2225   09E1 22 0E 40        ld (0400eh),hl
2226   09E4 FD 35 39        dec (iy+039h)
2227   09E7 C9              ret
2228   09E8             
2229   09E8             ; WRITE-N/L
2230   09E8             l09e8h:
2231   09E8 0E 21           ld c,021h
2232   09EA 05              dec b
2233   09EB FD CB 01 C6     set 0,(iy+001h)
2234   09EF C3 B7 0A        jp sub_0ab7h            ; routine LOC-ADDR
2235   09F2             
2236   09F2             ; --------------------------
2237   09F2             ; THE 'LPRINT-CH' SUBROUTINE
2238   09F2             ; --------------------------
2239   09F2             
2240   09F2             ; LPRINT-CH
2241   09F2             sub_09f2h:
2242   09F2 FE 76           cp 076h
2243   09F4 28 1B           jr z,sub_0a11h
2244   09F6 4F              ld c,a
2245   09F7 3A 38 40        ld a,(04038h)
2246   09FA E6 7F           and 07fh
2247   09FC FE 5C           cp 05ch
2248   09FE 6F              ld l,a
2249   09FF 26 40           ld h,040h
2250   0A01 CC 11 0A        call z,sub_0a11h
2251   0A04 71              ld (hl),c
2252   0A05 2C              inc l
2253   0A06 FD 75 38        ld (iy+038h),l
2254   0A09 C9              ret
2255   0A0A             
2256   0A0A             ; --------------------------
2257   0A0A             ; THE 'COPY' COMMAND ROUTINE
2258   0A0A             ; --------------------------
2259   0A0A             
2260   0A0A             ; COPY
2261   0A0A             sub_0101h:
2262   0A0A 16 16           ld d,016h
2263   0A0C 21 7E 40        ld hl,0407eh
2264   0A0F 18 05           jr l0a16h
2265   0A11             
2266   0A11             ; COPY-BUFF
2267   0A11             sub_0a11h:
2268   0A11 16 01           ld d,001h
2269   0A13 21 3C 40        ld hl,0403ch
2270   0A16             
2271   0A16             ; COPY*D
2272   0A16             l0a16h:
2273   0A16 CD 70 03        call sub_0370h          ; routine SET-FAST
2274   0A19 C5              push bc
2275   0A1A             
2276   0A1A             ; COPY-LOOP
2277   0A1A             l0a1ah:
2278   0A1A E5              push hl
2279   0A1B AF              xor a
2280   0A1C 5F              ld e,a
2281   0A1D             
2282   0A1D             ; COPY-TIME
2283   0A1D             l0a1dh:
2284   0A1D D3 FB           out (0fbh),a
2285   0A1F E1              pop hl
2286   0A20             
2287   0A20             ; COPY-BRK
2288   0A20             l0a20h:
2289   0A20 CD 3B 11        call sub_113bh
2290   0A23 38 05           jr c,l0a2ah
2291   0A25 1F              rra
2292   0A26 D3 FB           out (0fbh),a
2293   0A28             ; REPORT-D2
2294   0A28 CF              rst 08h                 ; ERROR-1
2295   0A29 0C              .byte $0C               ; BK - BreaK
2296   0A2A             
2297   0A2A             ; COPY-CONT
2298   0A2A             l0a2ah:
2299   0A2A DB FB           in a,(0fbh)
2300   0A2C 87              add a,a
2301   0A2D FA 7D 0A        jp m,l0a7dh
2302   0A30 30 EE           jr nc,l0a20h
2303   0A32 E5              push hl
2304   0A33 D5              push de
2305   0A34 7A              ld a,d
2306   0A35 FE 02           cp 002h
2307   0A37 9F              sbc a,a
2308   0A38 A3              and e
2309   0A39 07              rlca
2310   0A3A A3              and e
2311   0A3B 57              ld d,a
2312   0A3C             
2313   0A3C             ; COPY-NEXT
2314   0A3C             l0a3ch:
2315   0A3C 4E              ld c,(hl)
2316   0A3D 79              ld a,c
2317   0A3E 23              inc hl
2318   0A3F FE 76           cp 076h
2319   0A41 28 23           jr z,l0a66h
2320   0A43 E5              push hl
2321   0A44 D3 F6           out (0f6h),a            ; different to ZX81 from here
2322   0A46 7B              ld a,e
2323   0A47 D3 F5           out (0f5h),a            ; I think it is reading the char ROM in the ULA
2324   0A49 DB F6           in a,(0f6h)
2325   0A4B CB 11           rl c
2326   0A4D 30 02           jr nc,l0a51h
2327   0A4F EE FF           xor 0ffh
2328   0A51             l0a51h:
2329   0A51 4F              ld c,a
2330   0A52 06 08           ld b,008h
2331   0A54             
2332   0A54             ; COPY-BITS
2333   0A54             l0a54h:
2334   0A54 7A              ld a,d
2335   0A55 CB 01           rlc c
2336   0A57 1F              rra
2337   0A58 67              ld h,a
2338   0A59             
2339   0A59             ; COPY-WAIT
2340   0A59             l0a59h:
2341   0A59 DB FB           in a,(0fbh)
2342   0A5B 1F              rra
2343   0A5C 30 FB           jr nc,l0a59h
2344   0A5E 7C              ld a,h
2345   0A5F D3 FB           out (0fbh),a
2346   0A61 10 F1           djnz l0a54h
2347   0A63 E1              pop hl
2348   0A64 18 D6           jr l0a3ch
2349   0A66             
2350   0A66             ; COPY-N/L
2351   0A66             l0a66h:
2352   0A66 DB FB           in a,(0fbh)
2353   0A68 1F              rra
2354   0A69 30 FB           jr nc,l0a66h
2355   0A6B 7A              ld a,d
2356   0A6C 0F              rrca
2357   0A6D D3 FB           out (0fbh),a
2358   0A6F D1              pop de
2359   0A70 1C              inc e
2360   0A71 CB 5B           bit 3,e
2361   0A73 28 A8           jr z,l0a1dh
2362   0A75 C1              pop bc
2363   0A76 15              dec d
2364   0A77 20 A1           jr nz,l0a1ah
2365   0A79 3E 04           ld a,004h
2366   0A7B D3 FB           out (0fbh),a
2367   0A7D             
2368   0A7D             ; COPY-END
2369   0A7D             l0a7dh:
2370   0A7D CD 85 02        call sub_0285h          ; FAST/SLOW
2371   0A80 C1              pop bc
2372   0A81             
2373   0A81             ; -------------------------------------
2374   0A81             ; THE 'CLEAR PRINTER BUFFER' SUBROUTINE
2375   0A81             ; -------------------------------------
2376   0A81             
2377   0A81             ; CLEAR-PRB
2378   0A81             sub_0a81h:
2379   0A81 21 5C 40        ld hl,0405ch
2380   0A84 36 76           ld (hl),076h
2381   0A86 06 20           ld b,020h
2382   0A88             
2383   0A88             ; PRB-BYTES
2384   0A88             l0a88h:
2385   0A88 2B              dec hl
2386   0A89 36 00           ld (hl),000h
2387   0A8B 10 FB           djnz l0a88h
2388   0A8D 7D              ld a,l
2389   0A8E CB FF           set 7,a
2390   0A90 32 38 40        ld (04038h),a
2391   0A93 C9              ret
2392   0A94             
2393   0A94             ; -------------------------
2394   0A94             ; THE 'PRINT AT' SUBROUTINE
2395   0A94             ; -------------------------
2396   0A94             
2397   0A94             ; PRINT-AT
2398   0A94             sub_0a94h:
2399   0A94 3E 17           ld a,017h
2400   0A96 90              sub b
2401   0A97 38 0B           jr c,l0aa4h
2402   0A99             
2403   0A99             ; TEST-VAL
2404   0A99             sub_0a99h:
2405   0A99 FD BE 22        cp (iy+022h)
2406   0A9C DA D6 09        jp c,l09d6h
2407   0A9F 3C              inc a
2408   0AA0 47              ld b,a
2409   0AA1 3E 1F           ld a,01fh
2410   0AA3 91              sub c
2411   0AA4             
2412   0AA4             ; WRONG-VAL
2413   0AA4             l0aa4h:
2414   0AA4 DA 8E 10        jp c,l108eh
2415   0AA7 C6 02           add a,002h
2416   0AA9 4F              ld c,a
2417   0AAA             
2418   0AAA             ; SET-FIELD
2419   0AAA             sub_0aaah:
2420   0AAA FD CB 01 4E     bit 1,(iy+001h)
2421   0AAE 28 07           jr z,sub_0ab7h          ; routine LOC-ADDR
2422   0AB0 3E 5D           ld a,05dh
2423   0AB2 91              sub c
2424   0AB3 32 38 40        ld (04038h),a
2425   0AB6 C9              ret
2426   0AB7             
2427   0AB7             ; ----------------------------
2428   0AB7             ; THE 'LOCATE ADDRESS' ROUTINE
2429   0AB7             ; ----------------------------
2430   0AB7             
2431   0AB7             ; LOC-ADDR  different to ZX81
2432   0AB7             sub_0ab7h:
2433   0AB7 ED 43 39 40     ld (04039h),bc          ; Set S.POSN - Current PRINT position
2434   0ABB 3E 21           ld a,021h
2435   0ABD 91              sub c
2436   0ABE 4F              ld c,a
2437   0ABF 3E 18           ld a,018h
2438   0AC1 90              sub b
2439   0AC2 6F              ld l,a
2440   0AC3 26 00           ld h,000h
2441   0AC5 06 05           ld b,005h
2442   0AC7             l0ac7h:
2443   0AC7 29              add hl,hl
2444   0AC8 10 FD           djnz l0ac7h
2445   0ACA 09              add hl,bc
2446   0ACB 4F              ld c,a
2447   0ACC 09              add hl,bc
2448   0ACD 01 7E 40        ld bc,0407eh            ; position of top left character (fixed DFILE location)
2449   0AD0 09              add hl,bc               ; add offset to get address of character
2450   0AD1 22 0E 40        ld (0400eh),hl          ; Set DF.CC - Display file current character
2451   0AD4 06 00           ld b,000h
2452   0AD6 C9              ret
2453   0AD7             
2454   0AD7             ; ------------------------------
2455   0AD7             ; THE 'EXPAND TOKENS' SUBROUTINE
2456   0AD7             ; ------------------------------
2457   0AD7             
2458   0AD7             ; TOKENS
2459   0AD7             sub_0ad7h:
2460   0AD7 F5              push af
2461   0AD8 CD 07 0B        call sub_0b07h
2462   0ADB 30 08           jr nc,l0ae5h
2463   0ADD FD CB 01 46     bit 0,(iy+001h)
2464   0AE1 20 02           jr nz,l0ae5h
2465   0AE3 AF              xor a
2466   0AE4 D7              rst 10h
2467   0AE5             
2468   0AE5             ; ALL-CHARS - different to ZX81
2469   0AE5             l0ae5h:
2470   0AE5 0A              ld a,(bc)
2471   0AE6 E6 3F           and 03fh
2472   0AE8 D7              rst 10h
2473   0AE9 0A              ld a,(bc)
2474   0AEA 03              inc bc
2475   0AEB 87              add a,a
2476   0AEC 30 F7           jr nc,l0ae5h
2477   0AEE 4F              ld c,a
2478   0AEF F1              pop af
2479   0AF0 FE C0           cp 0c0h
2480   0AF2 30 03           jr nc,l0af7h
2481   0AF4 FE 43           cp 043h
2482   0AF6 D0              ret nc
2483   0AF7             l0af7h:
2484   0AF7 79              ld a,c
2485   0AF8 FE 1A           cp 01ah
2486   0AFA 28 03           jr z,l0affh
2487   0AFC FE 38           cp 038h
2488   0AFE D8              ret c
2489   0AFF             
2490   0AFF             ; TRAIL-SP
2491   0AFF             l0affh:
2492   0AFF AF              xor a
2493   0B00 FD CB 01 C6     set 0,(iy+001h)
2494   0B04 C3 96 09        jp l0996h
2495   0B07             
2496   0B07             ; TOKEN-ADD
2497   0B07             sub_0b07h:
2498   0B07 E5              push hl
2499   0B08 21 F0 00        ld hl,l00f0h            ; Tokens table
2500   0B0B CB 7F           bit 7,a
2501   0B0D 28 02           jr z,l0b11h
2502   0B0F E6 3F           and 03fh
2503   0B11             
2504   0B11             ; TEST-HIGH
2505   0B11             l0b11h:
2506   0B11 FE 46           cp 046h                 ; $46 tokens in table
2507   0B13 30 10           jr nc,l0b25h
2508   0B15 47              ld b,a
2509   0B16 04              inc b
2510   0B17             
2511   0B17             ; WORDS
2512   0B17             l0b17h:
2513   0B17 CB 7E           bit 7,(hl)
2514   0B19 23              inc hl
2515   0B1A 28 FB           jr z,l0b17h
2516   0B1C 10 F9           djnz l0b17h
2517   0B1E FE 43           cp 043h                 ; different offsets here
2518   0B20 30 03           jr nc,l0b25h
2519   0B22 FE 16           cp 016h                 ; and here
2520   0B24             
2521   0B24             ; COMP-FLAG
2522   0B24 3F              ccf
2523   0B25             
2524   0B25             ; FOUND
2525   0B25             l0b25h:
2526   0B25 44              ld b,h
2527   0B26 4D              ld c,l
2528   0B27 E1              pop hl
2529   0B28 D0              ret nc
2530   0B29 0A              ld a,(bc)
2531   0B2A C6 E4           add a,0e4h
2532   0B2C C9              ret
2533   0B2D             
2534   0B2D             ; --------------------------
2535   0B2D             ; THE 'ONE SPACE' SUBROUTINE
2536   0B2D             ; --------------------------
2537   0B2D             
2538   0B2D             ; ONE-SPACE
2539   0B2D             sub_0b2dh:
2540   0B2D 01 01 00        ld bc,00001h
2541   0B30             
2542   0B30             ; --------------------------
2543   0B30             ; THE 'MAKE ROOM' SUBROUTINE
2544   0B30             ; --------------------------
2545   0B30             
2546   0B30             ; MAKE-ROOM
2547   0B30             sub_0b30h:
2548   0B30 E5              push hl
2549   0B31 CD A0 10        call sub_10a0h
2550   0B34 E1              pop hl
2551   0B35 CD 3F 0B        call sub_0b3fh
2552   0B38 2A 1C 40        ld hl,(0401ch)
2553   0B3B EB              ex de,hl
2554   0B3C ED B8           lddr
2555   0B3E C9              ret
2556   0B3F             
2557   0B3F             ; -------------------------
2558   0B3F             ; THE 'POINTERS' SUBROUTINE
2559   0B3F             ; -------------------------
2560   0B3F             
2561   0B3F             ; POINTERS
2562   0B3F             sub_0b3fh:
2563   0B3F F5              push af
2564   0B40 E5              push hl
2565   0B41 21 0A 40        ld hl,0400ah            ; NXTLIN - Address of next line to be executed (ZX81 was $4029)
2566   0B44 3E 0A           ld a,00ah
2567   0B46             
2568   0B46             ; NEXT-PTR
2569   0B46             l0b46h:
2570   0B46 5E              ld e,(hl)
2571   0B47 23              inc hl
2572   0B48 56              ld d,(hl)
2573   0B49 E3              ex (sp),hl
2574   0B4A A7              and a
2575   0B4B ED 52           sbc hl,de
2576   0B4D 19              add hl,de
2577   0B4E E3              ex (sp),hl
2578   0B4F 30 09           jr nc,l0b5ah
2579   0B51 D5              push de
2580   0B52 EB              ex de,hl
2581   0B53 09              add hl,bc
2582   0B54 EB              ex de,hl
2583   0B55 72              ld (hl),d
2584   0B56 2B              dec hl
2585   0B57 73              ld (hl),e
2586   0B58 23              inc hl
2587   0B59 D1              pop de
2588   0B5A             
2589   0B5A             ; PTR-DONE
2590   0B5A             l0b5ah:
2591   0B5A 23              inc hl
2592   0B5B 3D              dec a
2593   0B5C 20 E8           jr nz,l0b46h
2594   0B5E EB              ex de,hl
2595   0B5F D1              pop de
2596   0B60 F1              pop af
2597   0B61 A7              and a
2598   0B62 ED 52           sbc hl,de
2599   0B64 44              ld b,h
2600   0B65 4D              ld c,l
2601   0B66 03              inc bc
2602   0B67 19              add hl,de
2603   0B68 EB              ex de,hl
2604   0B69 C9              ret
2605   0B6A             
2606   0B6A             ; -----------------------------
2607   0B6A             ; THE 'LINE ADDRESS' SUBROUTINE
2608   0B6A             ; -----------------------------
2609   0B6A             
2610   0B6A             ; LINE-ADDR
2611   0B6A             sub_0b6ah:
2612   0B6A E5              push hl
2613   0B6B 2A 0C 40        ld hl,(0400ch)          ; PRGRM, start of user program
2614   0B6E 54              ld d,h
2615   0B6F 5D              ld e,l
2616   0B70             
2617   0B70             ; NEXT-TEST
2618   0B70             l0b70h:
2619   0B70 C1              pop bc
2620   0B71 CD 7C 0B        call sub_0b7ch
2621   0B74 D0              ret nc
2622   0B75 C5              push bc
2623   0B76 CD 84 0B        call sub_0b84h
2624   0B79 EB              ex de,hl
2625   0B7A 18 F4           jr l0b70h
2626   0B7C             
2627   0B7C             ; -------------------------------------
2628   0B7C             ; THE 'COMPARE LINE NUMBERS' SUBROUTINE
2629   0B7C             ; -------------------------------------
2630   0B7C             
2631   0B7C             ; CP-LINES
2632   0B7C             sub_0b7ch:
2633   0B7C 7E              ld a,(hl)
2634   0B7D B8              cp b
2635   0B7E C0              ret nz
2636   0B7F 23              inc hl
2637   0B80 7E              ld a,(hl)
2638   0B81 2B              dec hl
2639   0B82 B9              cp c
2640   0B83 C9              ret
2641   0B84             
2642   0B84             ; --------------------------------------
2643   0B84             ; THE 'NEXT LINE OR VARIABLE' SUBROUTINE
2644   0B84             ; --------------------------------------
2645   0B84             
2646   0B84             ; NEXT-ONE
2647   0B84             sub_0b84h:
2648   0B84 E5              push hl
2649   0B85 7E              ld a,(hl)
2650   0B86 FE 40           cp 040h
2651   0B88 38 17           jr c,l0ba1h
2652   0B8A CB 6F           bit 5,a
2653   0B8C 28 14           jr z,l0ba2h
2654   0B8E 87              add a,a
2655   0B8F FA 93 0B        jp m,l0b93h
2656   0B92 3F              ccf
2657   0B93             
2658   0B93             ; NEXT+FIVE
2659   0B93             l0b93h:
2660   0B93 01 05 00        ld bc,00005h
2661   0B96 30 02           jr nc,l0b9ah
2662   0B98 0E 11           ld c,011h
2663   0B9A             
2664   0B9A             ; NEXT-LETT
2665   0B9A             l0b9ah:
2666   0B9A 17              rla
2667   0B9B 23              inc hl
2668   0B9C 7E              ld a,(hl)
2669   0B9D 30 FB           jr nc,l0b9ah
2670   0B9F 18 06           jr l0ba7h
2671   0BA1             
2672   0BA1             ; LINES
2673   0BA1             l0ba1h:
2674   0BA1 23              inc hl
2675   0BA2             
2676   0BA2             ; NEXT-O-4
2677   0BA2             l0ba2h:
2678   0BA2 23              inc hl
2679   0BA3 4E              ld c,(hl)
2680   0BA4 23              inc hl
2681   0BA5 46              ld b,(hl)
2682   0BA6 23              inc hl
2683   0BA7             
2684   0BA7             ; NEXT-ADD
2685   0BA7             l0ba7h:
2686   0BA7 09              add hl,bc
2687   0BA8 D1              pop de
2688   0BA9             
2689   0BA9             ; ---------------------------
2690   0BA9             ; THE 'DIFFERENCE' SUBROUTINE
2691   0BA9             ; ---------------------------
2692   0BA9             
2693   0BA9             ; DIFFER
2694   0BA9             sub_0ba9h:
2695   0BA9 A7              and a
2696   0BAA ED 52           sbc hl,de
2697   0BAC 44              ld b,h
2698   0BAD 4D              ld c,l
2699   0BAE 19              add hl,de
2700   0BAF EB              ex de,hl
2701   0BB0 C9              ret
2702   0BB1             
2703   0BB1             ;?? SCROLL ??
2704   0BB1 21 9F 40        ld hl,0409fh
2705   0BB4 11 7E 40        ld de,0407eh
2706   0BB7 01 F6 02        ld bc,l02f6h
2707   0BBA ED B0           ldir
2708   0BBC FD 46 22        ld b,(iy+022h)
2709   0BBF 04              inc b
2710   0BC0 18 10           jr l0bd2h
2711   0BC2             
2712   0BC2             ; --------------------------
2713   0BC2             ; THE 'LINE-ENDS' SUBROUTINE
2714   0BC2             ; --------------------------
2715   0BC2             
2716   0BC2             ; LINE-ENDS
2717   0BC2             sub_0bc2h:
2718   0BC2 FD 46 22        ld b,(iy+022h)
2719   0BC5 C5              push bc
2720   0BC6 CD D2 0B        call l0bd2h
2721   0BC9 C1              pop bc
2722   0BCA 05              dec b
2723   0BCB 0E 21           ld c,021h
2724   0BCD C3 B7 0A        jp sub_0ab7h            ; routine LOC-ADDR
2725   0BD0             
2726   0BD0             ; -------------------------
2727   0BD0             ; THE 'CLS' COMMAND ROUTINE
2728   0BD0             ; -------------------------
2729   0BD0             
2730   0BD0             ; Different as there is no collapsed display file
2731   0BD0             
2732   0BD0             ; CLS
2733   0BD0             sub_0bd0h:
2734   0BD0 06 18           ld b,018h               ; 24 lines
2735   0BD2             
2736   0BD2             ; B-LINES
2737   0BD2             l0bd2h:
2738   0BD2 FD CB 01 8E     res 1,(iy+001h)         ; Clear FLAG - printer not in use
2739   0BD6 FD 36 7C 00     ld (iy+07ch),000h       ; Clear address of blinking curosr
2740   0BDA FD CB 01 C6     set 0,(iy+001h)         ; Set FLAG  - Suppress leading space
2741   0BDE 0E 21           ld c,021h
2742   0BE0 C5              push bc
2743   0BE1 CD B7 0A        call sub_0ab7h          ; routine LOC-ADDR
2744   0BE4 C1              pop bc
2745   0BE5 48              ld c,b
2746   0BE6             
2747   0BE6             ; CLEAR-SCREEN
2748   0BE6 AF              xor a                   ; A = 0 = SPACE
2749   0BE7             l0be7h:
2750   0BE7 06 20           ld b,020h               ; 32 characters
2751   0BE9             l0be9h:
2752   0BE9 77              ld (hl),a               ; clear character
2753   0BEA 23              inc hl
2754   0BEB 10 FC           djnz l0be9h             ; loop until EOL
2755   0BED 23              inc hl                  ; skip over NEWLINE
2756   0BEE 0D              dec c                   ; line counter
2757   0BEF 20 F6           jr nz,l0be7h            ; loop back until complete
2758   0BF1 C9              ret
2759   0BF2             
2760   0BF2             ; ----------------------------
2761   0BF2             ; THE 'RECLAIMING' SUBROUTINES
2762   0BF2             ; ----------------------------
2763   0BF2             
2764   0BF2             ; RECLAIM-1
2765   0BF2             sub_0bf2h:
2766   0BF2 CD A9 0B        call sub_0ba9h
2767   0BF5             
2768   0BF5             ; RECLAIM-2
2769   0BF5             sub_0bf5h:
2770   0BF5 C5              push bc
2771   0BF6 78              ld a,b
2772   0BF7 2F              cpl
2773   0BF8 47              ld b,a
2774   0BF9 79              ld a,c
2775   0BFA 2F              cpl
2776   0BFB 4F              ld c,a
2777   0BFC 03              inc bc
2778   0BFD CD 3F 0B        call sub_0b3fh
2779   0C00 EB              ex de,hl
2780   0C01 E1              pop hl
2781   0C02 19              add hl,de
2782   0C03 D5              push de
2783   0C04 ED B0           ldir
2784   0C06 E1              pop hl
2785   0C07 C9              ret
2786   0C08             
2787   0C08             ; ------------------------------
2788   0C08             ; THE 'E-LINE NUMBER' SUBROUTINE
2789   0C08             ; ------------------------------
2790   0C08             
2791   0C08             ; E-LINE-NO
2792   0C08             sub_0c08h:
2793   0C08 2A 14 40        ld hl,(04014h)
2794   0C0B CD 4E 00        call sub_004eh
2795   0C0E DF              rst 18h
2796   0C0F             ;sub_0c0fh:
2797   0C0F FD CB 2D 6E     bit 5,(iy+02dh)
2798   0C13 C0              ret nz
2799   0C14 21 5D 40        ld hl,0405dh
2800   0C17 22 1C 40        ld (0401ch),hl
2801   0C1A CD 40 17        call sub_1740h
2802   0C1D CD 82 17        call sub_1782h
2803   0C20 38 04           jr c,l0c26h
2804   0C22 21 F0 D8        ld hl,0d8f0h
2805   0C25 09              add hl,bc
2806   0C26             
2807   0C26             ; NO-NUMBER
2808   0C26             l0c26h:
2809   0C26 DA 17 0F        jp c,l0f17h             ; to REPORT-C - Invalid Expression
2810   0C29 BF              cp a
2811   0C2A C3 B4 16        jp l16b4h
2812   0C2D             
2813   0C2D             ; -------------------------------------------------
2814   0C2D             ; THE 'REPORT AND LINE NUMBER' PRINTING SUBROUTINES
2815   0C2D             ; -------------------------------------------------
2816   0C2D             
2817   0C2D             ; OUT-NUM
2818   0C2D             sub_0c2dh:
2819   0C2D D5              push de
2820   0C2E E5              push hl
2821   0C2F                 ; missing call to UNITS here
2822   0C2F 60              ld h,b
2823   0C30 69              ld l,c
2824   0C31 1E FF           ld e,0ffh
2825   0C33 18 08           jr l0c3dh
2826   0C35             
2827   0C35             ; OUT-NO
2828   0C35             sub_0c35h:
2829   0C35 D5              push de
2830   0C36 56              ld d,(hl)
2831   0C37 23              inc hl
2832   0C38 5E              ld e,(hl)
2833   0C39 E5              push hl
2834   0C3A EB              ex de,hl
2835   0C3B 1E 00           ld e,000h
2836   0C3D             
2837   0C3D             ; THOUSAND
2838   0C3D             l0c3dh:
2839   0C3D 01 18 FC        ld bc,0fc18h
2840   0C40 CD 82 09        call sub_0982h
2841   0C43 01 9C FF        ld bc,0ff9ch
2842   0C46 CD 82 09        call sub_0982h
2843   0C49 0E F6           ld c,0f6h
2844   0C4B CD 82 09        call sub_0982h
2845   0C4E 7D              ld a,l
2846   0C4F             
2847   0C4F             ; UNITS
2848   0C4F CD 8C 09        call sub_098ch
2849   0C52 E1              pop hl
2850   0C53 D1              pop de
2851   0C54 C9              ret
2852   0C55             
2853   0C55             ; --------------------------
2854   0C55             ; THE 'UNSTACK-Z' SUBROUTINE
2855   0C55             ; --------------------------
2856   0C55             
2857   0C55             ; UNSTACK-Z
2858   0C55             sub_0c55h:
2859   0C55 CD 23 0F        call sub_0f23h
2860   0C58 E1              pop hl
2861   0C59 C8              ret z
2862   0C5A E9              jp (hl)
2863   0C5B             
2864   0C5B             ; ----------------------------
2865   0C5B             ; THE 'LPRINT' COMMAND ROUTINE
2866   0C5B             ; ----------------------------
2867   0C5B             
2868   0C5B             ; LPRINT
2869   0C5B             sub_0c5bh:
2870   0C5B FD CB 01 CE     set 1,(iy+001h)
2871   0C5F             
2872   0C5F             ; ---------------------------
2873   0C5F             ; THE 'PRINT' COMMAND ROUTINE
2874   0C5F             ; ---------------------------
2875   0C5F             
2876   0C5F             ; PRINT
2877   0C5F             sub_0c5fh:
2878   0C5F 7E              ld a,(hl)
2879   0C60 FE 76           cp 076h
2880   0C62 CA 0B 0D        jp z,l0d0bh
2881   0C65             
2882   0C65             ; PRINT-1
2883   0C65             l0c65h:
2884   0C65 D6 1A           sub 01ah
2885   0C67 CE 00           adc a,000h
2886   0C69 28 66           jr z,l0cd1h
2887   0C6B FE BA           cp 0bah
2888   0C6D 20 1B           jr nz,l0c8ah
2889   0C6F E7              rst 20h
2890   0C70 CD 0F 0F        call sub_0f0fh
2891   0C73 FE 1A           cp 01ah
2892   0C75 C2 17 0F        jp nz,l0f17h            ; to REPORT-C - Invalid Expression
2893   0C78 E7              rst 20h
2894   0C79 CD 0F 0F        call sub_0f0fh
2895   0C7C CD DB 0C        call sub_0cdbh
2896   0C7F EF              rst 28h                 ; FP-CALC
2897   0C80 01              .byte $01               ;;exchange
2898   0C81 34              .byte $34               ;;end-calc
2899   0C82 CD 7A 0D        call sub_0d7ah
2900   0C85 CD 94 0A        call sub_0a94h
2901   0C88 18 3A           jr l0cc4h
2902   0C8A             
2903   0C8A             ; NOT-AT
2904   0C8A             l0c8ah:
2905   0C8A FE BB           cp 0bbh                 ; different token on ZX81
2906   0C8C 20 30           jr nz,l0cbeh
2907   0C8E E7              rst 20h
2908   0C8F CD 0F 0F        call sub_0f0fh
2909   0C92 CD DB 0C        call sub_0cdbh
2910   0C95 CD 83 10        call sub_1083h
2911   0C98 E6 1F           and 01fh
2912   0C9A 4F              ld c,a
2913   0C9B FD CB 01 4E     bit 1,(iy+001h)
2914   0C9F 28 0A           jr z,l0cabh
2915   0CA1 FD 96 38        sub (iy+038h)
2916   0CA4 CB FF           set 7,a
2917   0CA6 C6 3C           add a,03ch
2918   0CA8 D4 11 0A        call nc,sub_0a11h
2919   0CAB             
2920   0CAB             ; TAB-TEST
2921   0CAB             l0cabh:
2922   0CAB FD 86 39        add a,(iy+039h)
2923   0CAE FE 21           cp 021h
2924   0CB0 3A 3A 40        ld a,(0403ah)
2925   0CB3 DE 01           sbc a,001h
2926   0CB5 CD 99 0A        call sub_0a99h
2927   0CB8 FD CB 01 C6     set 0,(iy+001h)
2928   0CBC 18 06           jr l0cc4h
2929   0CBE             
2930   0CBE             ; NOT-TAB
2931   0CBE             l0cbeh:
2932   0CBE CD 4A 11        call sub_114ah          ; routine SCANNING
2933   0CC1 CD E2 0C        call sub_0ce2h
2934   0CC4             
2935   0CC4             ; PRINT-ON
2936   0CC4             l0cc4h:
2937   0CC4 DF              rst 18h
2938   0CC5 D6 1A           sub 01ah
2939   0CC7 CE 00           adc a,000h
2940   0CC9 28 06           jr z,l0cd1h
2941   0CCB CD 9A 0E        call sub_0e9ah          ; routine CHECK-END
2942   0CCE C3 0B 0D        jp l0d0bh
2943   0CD1             
2944   0CD1             ; SPACING
2945   0CD1             l0cd1h:
2946   0CD1 D4 12 0D        call nc,sub_0d12h
2947   0CD4 E7              rst 20h
2948   0CD5 FE 76           cp 076h
2949   0CD7 C8              ret z
2950   0CD8 C3 65 0C        jp l0c65h
2951   0CDB             
2952   0CDB             ; SYNTAX-ON
2953   0CDB             sub_0cdbh:
2954   0CDB CD 23 0F        call sub_0f23h
2955   0CDE C0              ret nz
2956   0CDF E1              pop hl
2957   0CE0 18 E2           jr l0cc4h
2958   0CE2             
2959   0CE2             ; PRINT-STK
2960   0CE2             sub_0ce2h:
2961   0CE2 CD 55 0C        call sub_0c55h
2962   0CE5 FD CB 01 76     bit 6,(iy+001h)         ; check FLAGS - 0 = string or 1 = numeric result
2963   0CE9 CC ED 15        call z,sub_15edh        ; routine STK-FETCH
2964   0CEC 28 08           jr z,l0cf6h
2965   0CEE C3 D3 17        jp l17d3h
2966   0CF1             
2967   0CF1             ; PR-STR-1
2968   0CF1             ; missing ?
2969   0CF1             
2970   0CF1             ; PR-STR-2
2971   0CF1             l0cf1h:
2972   0CF1 D7              rst 10h
2973   0CF2             
2974   0CF2             ; PR-STR-3
2975   0CF2             l0cf2h:
2976   0CF2 ED 5B 18 40     ld de,(04018h)
2977   0CF6             
2978   0CF6             ; PR-STR-4
2979   0CF6             l0cf6h:
2980   0CF6 78              ld a,b
2981   0CF7 B1              or c
2982   0CF8 0B              dec bc
2983   0CF9 C8              ret z
2984   0CFA 1A              ld a,(de)
2985   0CFB 13              inc de
2986   0CFC ED 53 18 40     ld (04018h),de
2987   0D00 CB 77           bit 6,a
2988   0D02 28 ED           jr z,l0cf1h
2989   0D04 C5              push bc
2990   0D05 CD D7 0A        call sub_0ad7h
2991   0D08 C1              pop bc
2992   0D09 18 E7           jr l0cf2h
2993   0D0B             
2994   0D0B             ; PRINT-END
2995   0D0B             l0d0bh:
2996   0D0B CD 55 0C        call sub_0c55h
2997   0D0E 3E 76           ld a,076h
2998   0D10 D7              rst 10h
2999   0D11 C9              ret
3000   0D12             
3001   0D12             ; FIELD
3002   0D12             sub_0d12h:
3003   0D12 CD 55 0C        call sub_0c55h
3004   0D15 FD CB 01 C6     set 0,(iy+001h)
3005   0D19 AF              xor a
3006   0D1A D7              rst 10h
3007   0D1B ED 4B 39 40     ld bc,(04039h)
3008   0D1F 79              ld a,c
3009   0D20 FD CB 01 4E     bit 1,(iy+001h)
3010   0D24 28 05           jr z,l0d2bh
3011   0D26 3E 5D           ld a,05dh
3012   0D28 FD 96 38        sub (iy+038h)
3013   0D2B             
3014   0D2B             ; CENTRE
3015   0D2B             l0d2bh:
3016   0D2B 0E 11           ld c,011h
3017   0D2D B9              cp c
3018   0D2E 30 02           jr nc,l0d32h
3019   0D30 0E 01           ld c,001h
3020   0D32             
3021   0D32             ; RIGHT
3022   0D32             l0d32h:
3023   0D32 CD AA 0A        call sub_0aaah
3024   0D35 C9              ret
3025   0D36             
3026   0D36             ; --------------------------------------
3027   0D36             ; THE 'PLOT AND UNPLOT' COMMAND ROUTINES
3028   0D36             ; --------------------------------------
3029   0D36             
3030   0D36             ; PLOT/UNP
3031   0D36             sub_0d36h:
3032   0D36 CD 7A 0D        call sub_0d7ah
3033   0D39 ED 43 36 40     ld (04036h),bc
3034   0D3D 3E 2B           ld a,02bh
3035   0D3F 90              sub b
3036   0D40 DA 8E 10        jp c,l108eh
3037   0D43 47              ld b,a
3038   0D44 3E 01           ld a,001h
3039   0D46 CB 28           sra b
3040   0D48 30 02           jr nc,l0d4ch
3041   0D4A 3E 04           ld a,004h
3042   0D4C             
3043   0D4C             ; COLUMNS
3044   0D4C             l0d4ch:
3045   0D4C CB 29           sra c
3046   0D4E 30 01           jr nc,l0d51h
3047   0D50 07              rlca
3048   0D51             
3049   0D51             ; FIND-ADDR
3050   0D51             l0d51h:
3051   0D51 F5              push af
3052   0D52 CD 94 0A        call sub_0a94h
3053   0D55 7E              ld a,(hl)
3054   0D56 07              rlca
3055   0D57 FE 10           cp 010h
3056   0D59 30 06           jr nc,l0d61h
3057   0D5B 0F              rrca
3058   0D5C 30 02           jr nc,l0d60h
3059   0D5E EE 8F           xor 08fh
3060   0D60             
3061   0D60             ; SQ-SAVED
3062   0D60             l0d60h:
3063   0D60 47              ld b,a
3064   0D61             
3065   0D61             ; TABLE-PTR
3066   0D61             l0d61h:
3067   0D61 11 12 0E        ld de,l0e12h            ; Address: P-UNPLOT
3068   0D64 3A 30 40        ld a,(04030h)
3069   0D67 93              sub e
3070   0D68 FA 70 0D        jp m,l0d70h
3071   0D6B F1              pop af
3072   0D6C 2F              cpl
3073   0D6D A0              and b
3074   0D6E 18 02           jr l0d72h
3075   0D70             
3076   0D70             ; PLOT
3077   0D70             l0d70h:
3078   0D70 F1              pop af
3079   0D71 B0              or b
3080   0D72             
3081   0D72             ; UNPLOT
3082   0D72             l0d72h:
3083   0D72 FE 08           cp 008h
3084   0D74 38 02           jr c,l0d78h
3085   0D76 EE 8F           xor 08fh
3086   0D78             
3087   0D78             ; PLOT-END
3088   0D78             l0d78h:
3089   0D78                 ; Missing EXX before and after RST 10H
3090   0D78 D7              rst 10h
3091   0D79                 ;
3092   0D79 C9              ret
3093   0D7A             
3094   0D7A             ; ----------------------------
3095   0D7A             ; THE 'STACK-TO-BC' SUBROUTINE
3096   0D7A             ; ----------------------------
3097   0D7A             
3098   0D7A             ; STK-TO-BC
3099   0D7A             sub_0d7ah:
3100   0D7A CD 83 10        call sub_1083h
3101   0D7D 47              ld b,a
3102   0D7E C5              push bc
3103   0D7F CD 83 10        call sub_1083h
3104   0D82 C1              pop bc                  ; missing setting E and D to previous values of C
3105   0D83 4F              ld c,a
3106   0D84 C9              ret
3107   0D85             
3108   0D85             ; -------------------
3109   0D85             ; THE 'SYNTAX' TABLES
3110   0D85             ; -------------------
3111   0D85             
3112   0D85             ; i) The Offset table
3113   0D85             
3114   0D85             ; offset-t
3115   0D85             l0d85h:
3116   0D85 24              .byte    l0da9h - $     ; offset of $24 for TEMPO
3117   0D86 27              .byte    l0dadh - $     ; offset of $27 for MUSIC
3118   0D87 29              .byte    l0db0h - $     ; offset of $29 for SOUND
3119   0D88 2E              .byte    l0db6h - $     ; offset of $2E for BEEP
3120   0D89 30              .byte    l0db9h - $     ; offset of $30 for NOBEEP
3121   0D8A 9E              .byte    l0e28h - $     ; offset of $9E for LPRINT
3122   0D8B A0              .byte    l0e2bh - $     ; offset of $A0 for LLIST
3123   0D8C 40              .byte    l0dcch - $     ; offset of $40 for STOP
3124   0D8D 92              .byte    l0e1fh - $     ; offset of $92 for SLOW
3125   0D8E 94              .byte    l0e22h - $     ; offset of $94 for FAST
3126   0D8F 5C              .byte    l0debh - $     ; offset of $5C for NEW
3127   0D90 88              .byte    l0e18h - $     ; offset of $88 for SCROLL
3128   0D91 72              .byte    l0e03h - $     ; offset of $72 for CONT
3129   0D92 53              .byte    l0de5h - $     ; offset of $53 for DIM
3130   0D93 55              .byte    l0de8h - $     ; offset of $55 for REM
3131   0D94 3E              .byte    l0dd2h - $     ; offset of $3E for FOR
3132   0D95 2A              .byte    l0dbfh - $     ; offset of $2A for GOTO
3133   0D96 32              .byte    l0dc8h - $     ; offset of $32 for GOSUB
3134   0D97 4A              .byte    l0de1h - $     ; offset of $4A for INPUT
3135   0D98 65              .byte    l0dfdh - $     ; offset of $65 for LOAD
3136   0D99 58              .byte    l0df1h - $     ; offset of $58 for LIST
3137   0D9A 22              .byte    l0dbch - $     ; offset of $22 for LET
3138   0D9B 80              .byte    l0e1bh - $     ; offset of $80 for PAUSE
3139   0D9C 3E              .byte    l0ddah - $     ; offset of $3E for NEXT
3140   0D9D 57              .byte    l0df4h - $     ; offset of $57 for POKE
3141   0D9E 40              .byte    l0ddeh - $     ; offset of $40 for PRINT
3142   0D9F 6D              .byte    l0e0ch - $     ; offset of $6D for PLOT
3143   0DA0 4E              .byte    l0deeh - $     ; offset of $4E for RUN
3144   0DA1 5F              .byte    l0e00h - $     ; offset of $5F for SAVE
3145   0DA2 58              .byte    l0dfah - $     ; offset of $58 for RAND
3146   0DA3 20              .byte    l0dc3h - $     ; offset of $20 for IF
3147   0DA4 65              .byte    l0e09h - $     ; offset of $65 for CLS
3148   0DA5 6D              .byte    l0e12h - $     ; offset of $6D for UNPLOT
3149   0DA6 60              .byte    l0e06h - $     ; offset of $60 for CLEAR
3150   0DA7 28              .byte    l0dcfh - $     ; offset of $28 for RETURN
3151   0DA8 7D              .byte    l0e25h - $     ; offset of $7D for COPY
3152   0DA9             
3153   0DA9             ; P-TEMPO
3154   0DA9             l0da9h:
3155   0DA9 06              .byte    $06            ; Class-06 - A numeric expression must follow.
3156   0DAA 00              .byte    $00            ; Class-00 - No further operands.
3157   0DAB 5C 10           .word    sub_105ch      ; TEMPO
3158   0DAD             
3159   0DAD             ; P-MUSIC
3160   0DAD             l0dadh:
3161   0DAD 05              .byte    $05            ; Class-05 - Variable syntax checked entirely by routine.
3162   0DAE 4D 0F           .word    sub_0f4dh      ; MUSIC
3163   0DB0             
3164   0DB0             ; P-SOUND
3165   0DB0             l0db0h:
3166   0DB0 06              .byte    $06            ; Class-06 - A numeric expression must follow.
3167   0DB1 1A              .byte    $1A            ; Separator:  ','
3168   0DB2 06              .byte    $06            ; Class-06 - A numeric expression must follow.
3169   0DB3 00              .byte    $00            ; Class-00 - No further operands.
3170   0DB4 57 04           .word   sub_0457h       ; SOUND
3171   0DB6             
3172   0DB6             l0db6h:
3173   0DB6             ; P-BEEP
3174   0DB6 00              .byte    $00            ; Class-00 - No further operands.
3175   0DB7 31 11           .word    sub_1131h      ; BEEP
3176   0DB9             
3177   0DB9             ; P-NOBEEP
3178   0DB9             l0db9h:
3179   0DB9 00              .byte    $00            ; Class-00 - No further operands.
3180   0DBA 36 11           .word    sub_1136h      ; NOBEEP
3181   0DBC             
3182   0DBC             ; P-LET
3183   0DBC             l0dbch:
3184   0DBC 01              .byte    $01            ; Class-01 - A variable is required.
3185   0DBD 14              .byte    $14            ; Separator:  '='
3186   0DBE 02              .byte    $02            ; Class-02 - An expression, numeric or string, must follow.
3187   0DBF                                         ; no function to call
3188   0DBF             ; P-GOTO
3189   0DBF             l0dbfh:
3190   0DBF 06              .byte    $06            ; Class-06 - A numeric expression must follow.
3191   0DC0 00              .byte    $00            ; Class-00 - No further operands.
3192   0DC1 68 10           .word    sub_1068h      ; GOTO
3193   0DC3             
3194   0DC3             ; P-IF
3195   0DC3             l0dc3h:
3196   0DC3 06              .byte    $06            ; Class-06 - A numeric expression must follow.          ;
3197   0DC4 40              .byte    $40            ; Separator:  'THEN' ($DE on ZX81)
3198   0DC5 05              .byte    $05            ; Class-05 - Variable syntax checked entirely by routine.
3199   0DC6 2E 0E           .word    sub_0e2eh      ; IF
3200   0DC8             
3201   0DC8             ; P-GOSUB
3202   0DC8             l0dc8h:
3203   0DC8 06              .byte    $06            ; Class-06 - A numeric expression must follow.
3204   0DC9 00              .byte    $00            ; Class-00 - No further operands.
3205   0DCA 90 10           .word    sub_1090h      ; GOSUB
3206   0DCC             
3207   0DCC             ; P-STOP
3208   0DCC             l0dcch:
3209   0DCC 00              .byte    $00            ; Class-00 - No further operands.;
3210   0DCD 91 0E           .word    sub_0e91h      ; STOP
3211   0DCF             
3212   0DCF             ; P-RETURN
3213   0DCF             l0dcfh:
3214   0DCF 00              .byte    $00            ; Class-00 - No further operands.
3215   0DD0 B3 10           .word    sub_10b3h      ; RETURN
3216   0DD2             
3217   0DD2             ; P-FOR
3218   0DD2             l0dd2h:
3219   0DD2 04              .byte    $04            ; Class-04 - A single character variable must follow.
3220   0DD3 14              .byte    $14            ; Separator:  '='
3221   0DD4 06              .byte    $06            ; Class-06 - A numeric expression must follow.
3222   0DD5 41              .byte    $41            ; Separator:  'TO' (was $DF on ZX81)
3223   0DD6 06              .byte    $06            ; Class-06 - A numeric expression must follow.
3224   0DD7 05              .byte    $05            ; Class-05 - Variable syntax checked entirely by routine.
3225   0DD8 C9 0F           .word    sub_0fc9h      ; FOR
3226   0DDA             
3227   0DDA             ; P-NEXT
3228   0DDA             l0ddah:
3229   0DDA 04              .byte    $04            ; Class-04 - A single character variable must follow.
3230   0DDB 00              .byte    $00            ; Class-00 - No further operands.
3231   0DDC 0E 10           .word    sub_100eh      ; NEXT
3232   0DDE             
3233   0DDE             ; P-PRINT
3234   0DDE             l0ddeh:
3235   0DDE 05              .byte    $05            ; Class-05 - Variable syntax checked entirely by routine.
3236   0DDF 5F 0C           .word    sub_0c5fh      ; PRINT
3237   0DE1             
3238   0DE1             ; P-INPUT
3239   0DE1             l0de1h:
3240   0DE1 01              .byte    $01            ; Class-01 - A variable is required.
3241   0DE2 00              .byte    $00            ; Class-00 - No further operands.
3242   0DE3 C4 10           .word    sub_10c4h      ; INPUT
3243   0DE5             
3244   0DE5             ; P-DIM
3245   0DE5             l0de5h:
3246   0DE5 05              .byte    $05            ; Class-05 - Variable syntax checked entirely by routine.
3247   0DE6 FE 15           .word    sub_15feh      ;
3248   0DE8             
3249   0DE8             ; P-REM
3250   0DE8             l0de8h:
3251   0DE8 05              .byte    $05            ; Class-05 - Variable syntax checked entirely by routine.
3252   0DE9 E7 0E           .word    sub_0ee7h      ; REM
3253   0DEB             
3254   0DEB             ; P-NEW
3255   0DEB             l0debh:
3256   0DEB 00              .byte    $00            ; Class-00 - No further operands.
3257   0DEC 81 04           .word    sub_0481h      ; NEW
3258   0DEE             
3259   0DEE             ; P-RUN
3260   0DEE             l0deeh:
3261   0DEE 03              .byte    $03            ; Class-03 - A numeric expression may follow else default to zero.
3262   0DEF 8F 16           .word    sub_168fh      ; RUN
3263   0DF1             
3264   0DF1             ; P-LIST
3265   0DF1             l0df1h:
3266   0DF1 03              .byte    $03            ; Class-03 - A numeric expression may follow else default to zero.
3267   0DF2 BF 08           .word    sub_08bfh      ; LIST
3268   0DF4             
3269   0DF4             ; P-POKE
3270   0DF4             l0df4h:
3271   0DF4 06              .byte    $06            ; Class-06 - A numeric expression must follow.
3272   0DF5 1A              .byte    $1A            ; Separator:  ','
3273   0DF6 06              .byte    $06            ; Class-06 - A numeric expression must follow.
3274   0DF7 00              .byte    $00            ; Class-00 - No further operands.
3275   0DF8 79 10           .word    sub_1079h      ; POKE
3276   0DFA             
3277   0DFA             ; P-RAND
3278   0DFA             l0dfah:
3279   0DFA 03              .byte    $03            ; Class-03 - A numeric expression may follow else default to zero.
3280   0DFB 4C 10           .word    sub_104Ch      ; RAND
3281   0DFD             
3282   0DFD             ; P-LOAD
3283   0DFD             l0dfdh:
3284   0DFD 05              .byte    $05            ; Class-05 - Variable syntax checked entirely by routine.
3285   0DFE CD 03           .word    sub_03cdh      ; LOAD
3286   0E00             
3287   0E00             ; P-SAVE
3288   0E00             l0e00h:
3289   0E00 05              .byte    $05            ; Class-05 - Variable syntax checked entirely by routine.
3290   0E01 7F 03           .word    sub_037fh      ; SAVE
3291   0E03             
3292   0E03             ; P-CONT
3293   0E03             l0e03h:
3294   0E03 00              .byte    $00            ; Class-00 - No further operands.
3295   0E04 63 10           .word    sub_1063h      ; CONT
3296   0E06             
3297   0E06             ; P-CLEAR
3298   0E06             l0e06h:
3299   0E06 00              .byte    $00            ; Class-00 - No further operands.
3300   0E07 92 16           .word    sub_1692h      ; CLEAR
3301   0E09             
3302   0E09             ; P-CLS
3303   0E09             l0e09h:
3304   0E09 00              .byte    $00            ; Class-00 - No further operands.
3305   0E0A D0 0B           .word    sub_0bd0h      ; CLS
3306   0E0C             
3307   0E0C             ; P-PLOT
3308   0E0C             l0e0ch:
3309   0E0C 06              .byte    $06            ; Class-06 - A numeric expression must follow.
3310   0E0D 1A              .byte    $1A            ; Separator:  ','
3311   0E0E 06              .byte    $06            ; Class-06 - A numeric expression must follow.
3312   0E0F 00              .byte    $00            ; Class-00 - No further operands.
3313   0E10 36 0D           .word    sub_0d36h      ; PLOT/UNPLOT
3314   0E12             
3315   0E12             ; P-UNPLOT
3316   0E12             l0e12h:
3317   0E12 06              .byte    $06            ; Class-06 - A numeric expression must follow.
3318   0E13 1A              .byte    $1A            ; Separator:  ','
3319   0E14 06              .byte    $06            ; Class-06 - A numeric expression must follow.
3320   0E15 00              .byte    $00            ; Class-00 - No further operands.
3321   0E16 36 0D           .word    sub_0d36h      ; PLOT/UNPLOT
3322   0E18             
3323   0E18             ; P-SCROLL
3324   0E18             l0e18h:
3325   0E18 00              .byte    $00            ; Class-00 - No further operands.
3326   0E19 B1 0B           .word    $0BB1          ; SCROLL
3327   0E1B             
3328   0E1B             ; P-PAUSE
3329   0E1B             l0e1bh:
3330   0E1B 06              .byte    $06            ; Class-06 - A numeric expression must follow.
3331   0E1C 00              .byte    $00            ; Class-00 - No further operands.
3332   0E1D FE 10           .word    $10FE          ; PAUSE
3333   0E1F             
3334   0E1F             ; P-SLOW
3335   0E1F             l0e1fh:
3336   0E1F 00              .byte    $00            ; Class-00 - No further operands.
3337   0E20 81 02           .word    sub_0281h      ; SLOW
3338   0E22             
3339   0E22             ; P-FAST
3340   0E22             l0e22h:
3341   0E22 00              .byte    $00            ; Class-00 - No further operands.
3342   0E23 6C 03           .word    sub_036ch      ; FAST
3343   0E25             
3344   0E25             ; P-COPY
3345   0E25             l0e25h:
3346   0E25 00              .byte    $00            ; Class-00 - No further operands.
3347   0E26 0A 0A           .word    sub_0101h      ; COPY
3348   0E28             
3349   0E28             ; P-LPRINT
3350   0E28             l0e28h:
3351   0E28 05              .byte    $05            ; Class-05 - Variable syntax checked entirely by routine.
3352   0E29 5B 0C           .word    sub_0c5bh      ; LPRINT
3353   0E2B             
3354   0E2B             ; P-LLIST
3355   0E2B             l0e2bh:
3356   0E2B 03              .byte    $03            ; Class-03 - A numeric expression may follow else default to zero.
3357   0E2C BB 08           .word    sub_08bbh      ; LLIST
3358   0E2E             
3359   0E2E             ; ------------------------
3360   0E2E             ; THE 'IF' COMMAND ROUTINE
3361   0E2E             ; ------------------------
3362   0E2E             
3363   0E2E             ; IF
3364   0E2E             sub_0e2eh
3365   0E2E CD 23 0F        call sub_0f23h
3366   0E31 28 06           jr z,l0e39h
3367   0E33 EF              rst 28h                 ; FP-CALC
3368   0E34 02              .byte    $02            ;;delete
3369   0E35 34              .byte    $34            ;;end-calc
3370   0E36 1A              ld a,(de)
3371   0E37 A7              and a
3372   0E38 C8              ret z
3373   0E39             
3374   0E39             ; IF-END
3375   0E39             l0e39h:
3376   0E39 18 18           jr l0e53h
3377   0E3B             
3378   0E3B             ; ---------------------------
3379   0E3B             ; THE 'LINE SCANNING' ROUTINE
3380   0E3B             ; ---------------------------
3381   0E3B             
3382   0E3B             ; LINE-SCAN
3383   0E3B             sub_0e3bh:
3384   0E3B FD 36 01 01     ld (iy+001h),001h
3385   0E3F CD 08 0C        call sub_0c08h
3386   0E42             sub_0e42h:
3387   0E42 CD B4 16        call l16b4h
3388   0E45 21 00 40        ld hl,04000h
3389   0E48 36 FF           ld (hl),0ffh
3390   0E4A 21 2D 40        ld hl,0402dh
3391   0E4D CB 6E           bit 5,(hl)
3392   0E4F 7E              ld a,(hl)
3393   0E50 C2 EC 0E        jp nz,l0eech
3394   0E53             l0e53h:
3395   0E53 DF              rst 18h
3396   0E54 06 00           ld b,000h
3397   0E56 FE 76           cp 076h
3398   0E58 C8              ret z
3399   0E59 4F              ld c,a
3400   0E5A FE 40           cp 040h
3401   0E5C 3E F1           ld a,0f1h
3402   0E5E 38 02           jr c,l0e62h
3403   0E60 E7              rst 20h
3404   0E61 79              ld a,c
3405   0E62             l0e62h:
3406   0E62 D6 DC           sub 0dch
3407   0E64 38 3D           jr c,l0ea3h
3408   0E66 4F              ld c,a
3409   0E67 21 85 0D        ld hl,l0d85h
3410   0E6A 09              add hl,bc
3411   0E6B 4E              ld c,(hl)
3412   0E6C 09              add hl,bc
3413   0E6D 18 03           jr l0e72h
3414   0E6F             l0e6fh:
3415   0E6F 2A 30 40        ld hl,(04030h)
3416   0E72             l0e72h:
3417   0E72 7E              ld a,(hl)
3418   0E73 23              inc hl
3419   0E74 22 30 40        ld (04030h),hl
3420   0E77 01 6F 0E        ld bc,l0e6fh
3421   0E7A C5              push bc
3422   0E7B 4F              ld c,a
3423   0E7C FE 0B           cp 00bh
3424   0E7E 30 0B           jr nc,l0e8bh
3425   0E80 21 93 0E        ld hl,l0e93h
3426   0E83 06 00           ld b,000h
3427   0E85 09              add hl,bc
3428   0E86 4E              ld c,(hl)
3429   0E87 09              add hl,bc
3430   0E88 E5              push hl
3431   0E89 DF              rst 18h
3432   0E8A C9              ret
3433   0E8B             l0e8bh:
3434   0E8B DF              rst 18h
3435   0E8C B9              cp c
3436   0E8D 20 14           jr nz,l0ea3h
3437   0E8F E7              rst 20h
3438   0E90 C9              ret
3439   0E91             
3440   0E91             ; --------------------------
3441   0E91             ; THE 'STOP' COMMAND ROUTINE
3442   0E91             ; --------------------------
3443   0E91             
3444   0E91             ; STOP
3445   0E91             sub_0e91h:
3446   0E91 CF              rst 08h                 ; ERROR-1
3447   0E92 08              .byte $08               ; ST - STopped
3448   0E93             
3449   0E93             ; -------------------------
3450   0E93             ; THE 'COMMAND CLASS' TABLE
3451   0E93             ; -------------------------
3452   0E93             
3453   0E93             ; class-tbl
3454   0E93             l0e93h:
3455   0E93 17              .byte sub_0eaah - $     ; offset of $17 to CLASS-0
3456   0E94 25              .byte sub_0eb9h - $     ; offset of $25 to CLASS-1
3457   0E95 53              .byte sub_0ee8h - $     ; offset of $53 to CLASS-2
3458   0E96 0F              .byte sub_0ea5h - $     ; offset of $0F to CLASS-3
3459   0E97 6B              .byte sub_0f02h - $     ; offset of $6B to CLASS-4
3460   0E98 13              .byte sub_0eabh - $     ; offset of $13 to CLASS-5
3461   0E99 76              .byte sub_0f0fh - $     ; offset of $76 to CLASS-6
3462   0E9A             
3463   0E9A             ; --------------------------
3464   0E9A             ; THE 'CHECK END' SUBROUTINE
3465   0E9A             ; --------------------------
3466   0E9A             
3467   0E9A             ; CHECK-END
3468   0E9A             sub_0e9ah:
3469   0E9A CD 23 0F        call sub_0f23h
3470   0E9D C0              ret nz
3471   0E9E C1              pop bc
3472   0E9F             
3473   0E9F             ; CHECK-2
3474   0E9F             l0e9fh:
3475   0E9F 7E              ld a,(hl)
3476   0EA0 FE 76           cp 076h
3477   0EA2 C8              ret z
3478   0EA3             
3479   0EA3             ; REPORT-C2
3480   0EA3             l0ea3h:
3481   0EA3 18 72           jr l0f17h               ; to REPORT-C - Invalid Expression
3482   0EA5             
3483   0EA5             ; --------------------------
3484   0EA5             ; COMMAND CLASSES 03, 00, 05
3485   0EA5             ; --------------------------
3486   0EA5             
3487   0EA5             ; CLASS-3
3488   0EA5             sub_0ea5h:
3489   0EA5 FE 76           cp 076h
3490   0EA7 CD 19 0F        call sub_0f19h
3491   0EAA             
3492   0EAA             ; CLASS-0
3493   0EAA             sub_0eaah:
3494   0EAA BF              cp a
3495   0EAB             
3496   0EAB             ; CLASS-5
3497   0EAB             sub_0eabh:
3498   0EAB C1              pop bc
3499   0EAC CC 9A 0E        call z,sub_0e9ah        ; routine CHECK-END
3500   0EAF EB              ex de,hl
3501   0EB0 2A 30 40        ld hl,(04030h)
3502   0EB3 4E              ld c,(hl)
3503   0EB4 23              inc hl
3504   0EB5 46              ld b,(hl)
3505   0EB6 EB              ex de,hl
3506   0EB7             
3507   0EB7             ; CLASS-END
3508   0EB7             l0eb7h:
3509   0EB7 C5              push bc
3510   0EB8 C9              ret
3511   0EB9             
3512   0EB9             ; ------------------------------
3513   0EB9             ; COMMAND CLASSES 01, 02, 04, 06
3514   0EB9             ; ------------------------------
3515   0EB9             
3516   0EB9             ; CLASS-1
3517   0EB9             sub_0eb9h:
3518   0EB9 CD 11 13        call 01311h
3519   0EBC             
3520   0EBC             ; CLASS-4-2
3521   0EBC             l0ebch:
3522   0EBC FD 36 2D 00     ld (iy+02dh),000h
3523   0EC0 30 08           jr nc,$+10
3524   0EC2 FD CB 2D CE     set 1,(iy+02dh)
3525   0EC6 20 18           jr nz,l0ee0h
3526   0EC8             
3527   0EC8             
3528   0EC8             ; REPORT-2
3529   0EC8             l0ec8h:
3530   0EC8 CF              rst 08h                 ; ERROR-1
3531   0EC9 01              .byte $01               ; UV - Unidentified Variable
3532   0ECA             
3533   0ECA             ; SET-STK
3534   0ECA CC 9C 13        call z,sub_139ch
3535   0ECD FD CB 01 76     bit 6,(iy+001h)         ; check FLAGS - 0 = string or 1 = numeric result
3536   0ED1 20 0D           jr nz,l0ee0h
3537   0ED3 AF              xor a
3538   0ED4 CD 23 0F        call sub_0f23h
3539   0ED7 C4 ED 15        call nz,sub_15edh       ; routine STK-FETCH
3540   0EDA 21 2D 40        ld hl,0402dh
3541   0EDD B6              or (hl)
3542   0EDE 77              ld (hl),a
3543   0EDF EB              ex de,hl
3544   0EE0             
3545   0EE0             ; SET-STRLN
3546   0EE0             l0ee0h:
3547   0EE0 ED 43 2E 40     ld (0402eh),bc
3548   0EE4 22 12 40        ld (04012h),hl
3549   0EE7                 ; drops through
3550   0EE7             
3551   0EE7             ; THE 'REM' COMMAND ROUTINE
3552   0EE7             
3553   0EE7             ; REM
3554   0EE7             sub_0ee7h:
3555   0EE7 C9              ret
3556   0EE8             
3557   0EE8             ; CLASS-2
3558   0EE8             sub_0ee8h:
3559   0EE8 C1              pop bc
3560   0EE9 3A 01 40        ld a,(04001h)
3561   0EEC             
3562   0EEC             ; INPUT-REP
3563   0EEC             l0eech:
3564   0EEC F5              push af
3565   0EED CD 4A 11        call sub_114ah          ; routine SCANNING
3566   0EF0 F1              pop af
3567   0EF1 01 16 15        ld bc,l1516h
3568   0EF4 FD 56 01        ld d,(iy+001h)
3569   0EF7 AA              xor d
3570   0EF8 E6 40           and 040h
3571   0EFA 20 1B           jr nz,l0f17h            ; to REPORT-C - Invalid Expression
3572   0EFC CB 7A           bit 7,d
3573   0EFE 20 B7           jr nz,l0eb7h
3574   0F00 18 9D           jr l0e9fh
3575   0F02             
3576   0F02             ; CLASS-4
3577   0F02             sub_0f02h:
3578   0F02 CD 11 13        call 01311h
3579   0F05 F5              push af
3580   0F06 79              ld a,c
3581   0F07 F6 9F           or 09fh
3582   0F09 3C              inc a
3583   0F0A 20 0B           jr nz,l0f17h            ; to REPORT-C - Invalid Expression
3584   0F0C F1              pop af
3585   0F0D 18 AD           jr l0ebch
3586   0F0F             
3587   0F0F             ; CLASS-6
3588   0F0F             sub_0f0fh:
3589   0F0F CD 4A 11        call sub_114ah          ; routine SCANNING
3590   0F12 FD CB 01 76     bit 6,(iy+001h)         ; check FLAGS - 0 = string or 1 = numeric result
3591   0F16 C0              ret nz
3592   0F17             
3593   0F17             ; REPORT-C
3594   0F17             l0f17h:
3595   0F17 CF              rst 08h                 ; ERROR-1
3596   0F18 0B              .byte $0B               ; IE - Invalid Expression
3597   0F19             
3598   0F19             ; --------------------------------
3599   0F19             ; THE 'NUMBER TO STACK' SUBROUTINE
3600   0F19             ; --------------------------------
3601   0F19             
3602   0F19             ; NO-TO-STK
3603   0F19             sub_0f19h:
3604   0F19 20 F4           jr nz,sub_0f0fh
3605   0F1B CD 23 0F        call sub_0f23h
3606   0F1E C8              ret z
3607   0F1F EF              rst 28h                 ; FP-CALC
3608   0F20 A0              .byte $A0               ;;stk-zero
3609   0F21 34              .byte $34               ;;end-calc
3610   0F22 C9              ret
3611   0F23             
3612   0F23             ; -------------------------
3613   0F23             ; THE 'SYNTAX-Z' SUBROUTINE
3614   0F23             ; -------------------------
3615   0F23             
3616   0F23             ; SYNTAX-Z
3617   0F23             sub_0f23h:
3618   0F23 FD CB 01 7E     bit 7,(iy+001h)
3619   0F27 C9              ret
3620   0F28             
3621   0F28             ; ---------------------
3622   0F28             ; MORE 'MUSIC' ROUTINES
3623   0F28             ; ---------------------
3624   0F28             
3625   0F28             ; MUSIC-TABLE
3626   0F28             l0f28h:
3627   0F28 94              .byte $94               ; A
3628   0F29 8B              .byte $8B               ; A#
3629   0F2A 84              .byte $84               ; B
3630   0F2B 7C              .byte $7C               ; B#
3631   0F2C F8              .byte $F8               ; C
3632   0F2D EB              .byte $EB               ; C#
3633   0F2E DD              .byte $DD               ; D
3634   0F2F D1              .byte $D1               ; D#
3635   0F30 C5              .byte $C5               ; E
3636   0F31 BA              .byte $BA               ; (=F)
3637   0F32 BA              .byte $BA               ; F
3638   0F33 B0              .byte $B0               ; F#
3639   0F34 A6              .byte $A6               ; G
3640   0F35 9D              .byte $9D               ; G#
3641   0F36             
3642   0F36             ; MUSIC-9
3643   0F36             sub_0f36h:
3644   0F36 FE 26           cp 026h
3645   0F38 D0              ret nc
3646   0F39 D6 1C           sub 01ch
3647   0F3B 3F              ccf
3648   0F3C C9              ret
3649   0F3D             
3650   0F3D             ; MUSIC-10
3651   0F3D             l0f3dh:
3652   0F3D 78              ld a,b
3653   0F3E B1              or c
3654   0F3F C8              ret z                   ; return if A and B are 0
3655   0F40 7E              ld a,(hl)               ; get character
3656   0F41 23              inc hl                  ; step pointer
3657   0F42 0B              dec bc                  ; decrement length
3658   0F43 A7              and a                   ; check character
3659   0F44 C0              ret nz                  ; return if not a space
3660   0F45 18 F6           jr l0f3dh               ; to MUSIC-10
3661   0F47             
3662   0F47             ; MUSIC-11
3663   0F47             sub_0f47h:
3664   0F47 CD 3D 0F        call l0f3dh             ; to MUSIC-10
3665   0F4A C0              ret nz
3666   0F4B             
3667   0F4B             ; REPORT-MF
3668   0F4B             l0f4bh:
3669   0F4B CF              rst 08h                 ; ERROR-1
3670   0F4C 0E              .byte $0E               ; MF - Music Format incorrect
3671   0F4D             
3672   0F4D             ; ---------------------------
3673   0F4D             ; THE 'MUSIC' COMMAND ROUTINE
3674   0F4D             ; ---------------------------
3675   0F4D             
3676   0F4D             ; MUSIC
3677   0F4D             sub_0f4dh:
3678   0F4D CD 4A 11        call sub_114ah          ; routine SCANNING
3679   0F50 FD CB 01 76     bit 6,(iy+001h)         ; check FLAGS - 0 = string or 1 = numeric result
3680   0F54 20 C1           jr nz,l0f17h            ; to REPORT-C - Invalid Expression
3681   0F56 CD 9A 0E        call sub_0e9ah          ; routine CHECK-END
3682   0F59 CD ED 15        call sub_15edh          ; routine STK-FETCH
3683   0F5C EB              ex de,hl                ; DE now start address, HL string length
3684   0F5D CD 70 03        call sub_0370h          ; routine SET-FAST
3685   0F60             
3686   0F60             ; MUSIC-1
3687   0F60             l0f60h:
3688   0F60 CD 3D 0F        call l0f3dh             ; routine MUSIC-10 (get next character)
3689   0F63 CA 85 02        jp z,sub_0285h          ; check in FAST mode
3690   0F66 FE 1B           cp 01bh                 ; is character '"'
3691   0F68 1E 01           ld e,001h
3692   0F6A 28 22           jr z,l0f8eh             ; to MUSIC-2 if it is
3693   0F6C 07              rlca                    ; character x2
3694   0F6D FE 5A           cp 05ah                 ; Before the rotate, A would have been $2D, 'H', so checking A-G
3695   0F6F 30 DA           jr nc,l0f4bh            ; to REPORT, Music Format incorrect
3696   0F71 D6 4C           sub 04ch
3697   0F73 38 D6           jr c,l0f4bh             ; to REPORT, Music Format incorrect
3698   0F75             
3699   0F75             ; get note
3700   0F75 E5              push hl
3701   0F76 16 00           ld d,000h
3702   0F78 5F              ld e,a
3703   0F79 21 28 0F        ld hl,l0f28h            ; address of MUSIC-TABLE
3704   0F7C 19              add hl,de               ; offset by 2x letter - 4C
3705   0F7D 5E              ld e,(hl)               ; get note
3706   0F7E E1              pop hl
3707   0F7F             
3708   0F7F CD 47 0F        call sub_0f47h          ; routine MUSIC-11
3709   0F82 FE 13           cp 013h                 ; is character '<'
3710   0F84 28 08           jr z,l0f8eh             ; to MUSIC-2 if it is
3711   0F86 CB 3B           srl e                   ; down an octave
3712   0F88 FE 12           cp 012h                 ; is character '>'
3713   0F8A 20 05           jr nz,l0f91h            ; to MUSIC-3 if it isn't
3714   0F8C CB 3B           srl e                   ; down an octave
3715   0F8E             
3716   0F8E             ; MUSIC-2
3717   0F8E             l0f8eh:
3718   0F8E CD 47 0F        call sub_0f47h          ; routine MUSIC-11
3719   0F91             
3720   0F91             ; MUSIC-3 - get duration
3721   0F91             l0f91h:
3722   0F91 CD 36 0F        call sub_0f36h          ; routine MUSIC-9
3723   0F94 30 B5           jr nc,l0f4bh            ; to REPORT, Music Format incorrect
3724   0F96 57              ld d,a
3725   0F97 CD 3D 0F        call l0f3dh             ; routine MUSIC-10
3726   0F9A 28 12           jr z,l0faeh             ; to MUSIC-5
3727   0F9C CD 36 0F        call sub_0f36h          ; routine MUSIC-9
3728   0F9F 38 04           jr c,l0fa5h
3729   0FA1 2B              dec hl
3730   0FA2 03              inc bc
3731   0FA3 18 09           jr l0faeh               ; to MUSIC-5
3732   0FA5             
3733   0FA5             ; MUSIC-4
3734   0FA5             l0fa5h:
3735   0FA5 CB 22           sla d
3736   0FA7 82              add a,d
3737   0FA8 CB 22           sla d
3738   0FAA CB 22           sla d
3739   0FAC 82              add a,d
3740   0FAD 57              ld d,a
3741   0FAE             
3742   0FAE             ; MUSIC-5 - play note
3743   0FAE             l0faeh:
3744   0FAE E5              push hl
3745   0FAF C5              push bc
3746   0FB0 62              ld h,d                  ; prepare note
3747   0FB1 FD 6E 21        ld l,(iy+021h)          ; TEMPO
3748   0FB4 0E 00           ld c,000h
3749   0FB6 53              ld d,e
3750   0FB7             
3751   0FB7             ; MUSIC-6
3752   0FB7             l0fb7h:
3753   0FB7 45              ld b,l
3754   0FB8             ; by this point E = note (adjusted from table), BC = duration (from TEMPO)
3755   0FB8 CD 63 04        call l0463h             ; routine PLAY-NOTE-2
3756   0FBB 25              dec h
3757   0FBC 20 F9           jr nz,l0fb7h            ; loop back to MUSIC-6
3758   0FBE 06 05           ld b,005h
3759   0FC0             
3760   0FC0             ; MUSIC-7
3761   0FC0             l0fc0h:
3762   0FC0 0B              dec bc
3763   0FC1 78              ld a,b
3764   0FC2 B1              or c
3765   0FC3 20 FB           jr nz,l0fc0h            ; loop until BC = 0
3766   0FC5 C1              pop bc
3767   0FC6 E1              pop hl
3768   0FC7 18 97           jr l0f60h               ; back to MUSIC-1
3769   0FC9             
3770   0FC9             
3771   0FC9             ; -------------------------
3772   0FC9             ; THE 'FOR' COMMAND ROUTINE
3773   0FC9             ; -------------------------
3774   0FC9             
3775   0FC9             ; FOR
3776   0FC9             sub_0fc9h:
3777   0FC9 FE 42           cp 042h                 ; STEP ($E0 on ZX81)
3778   0FCB 20 09           jr nz,l0fd6h
3779   0FCD E7              rst 20h
3780   0FCE CD 0F 0F        call sub_0f0fh
3781   0FD1 CD 9A 0E        call sub_0e9ah          ; routine CHECK-END
3782   0FD4 18 06           jr l0fdch
3783   0FD6             
3784   0FD6             ; F-USE-ONE
3785   0FD6             l0fd6h:
3786   0FD6 CD 9A 0E        call sub_0e9ah          ; routine CHECK-END
3787   0FD9 EF              rst 28h                 ; FP-CALC
3788   0FDA A1              .byte $A1               ;;stk-one
3789   0FDB 34              .byte $34               ;;end-calc
3790   0FDC             
3791   0FDC             ; F-REORDER
3792   0FDC             l0fdch:
3793   0FDC EF              rst 28h                 ; FP-CALC      v, l, s.
3794   0FDD C0              .byte $C0               ;;st-mem-0      v, l, s.
3795   0FDE 02              .byte $02               ;;delete        v, l.
3796   0FDF 01              .byte $01               ;;exchange      l, v.
3797   0FE0 E0              .byte $E0               ;;get-mem-0     l, v, s.
3798   0FE1 01              .byte $01               ;;exchange      l, s, v.
3799   0FE2 34              .byte $34               ;;end-calc      l, s, v.
3800   0FE3 CD 16 15        call l1516h
3801   0FE6 22 1F 40        ld (0401fh),hl
3802   0FE9 2B              dec hl
3803   0FEA 7E              ld a,(hl)
3804   0FEB CB FE           set 7,(hl)
3805   0FED 01 06 00        ld bc,l0006h
3806   0FF0 09              add hl,bc
3807   0FF1 07              rlca
3808   0FF2 38 06           jr c,l0ffah
3809   0FF4 CB 21           sla c
3810   0FF6 CD 30 0B        call sub_0b30h          ; MAKE-ROOM
3811   0FF9 23              inc hl
3812   0FFA             
3813   0FFA             ; F-LMT-STP
3814   0FFA             l0ffah:
3815   0FFA E5              push hl
3816   0FFB EF              rst 28h                 ; FP-CALC
3817   0FFC 02              .byte $02               ;;delete
3818   0FFD 02              .byte $02               ;;delete
3819   0FFE 34              .byte $34               ;;end-calc
3820   0FFF E1              pop hl
3821   1000 EB              ex de,hl
3822   1001 0E 0A           ld c,00ah
3823   1003 ED B0           ldir
3824   1005 2A 07 40        ld hl,(04007h)
3825   1008 EB              ex de,hl
3826   1009 13              inc de
3827   100A 73              ld (hl),e
3828   100B 23              inc hl
3829   100C 72              ld (hl),d
3830   100D C9              ret                     ; skips call to NEXT-LOOP
3831   100E             
3832   100E             ; --------------------------
3833   100E             ; THE 'NEXT' COMMAND ROUTINE
3834   100E             ; --------------------------
3835   100E             
3836   100E             ; NEXT
3837   100E             sub_100eh:
3838   100E FD CB 2D 4E     bit 1,(iy+02dh)
3839   1012 C2 C8 0E        jp nz,l0ec8h
3840   1015 2A 12 40        ld hl,(04012h)
3841   1018 CB 7E           bit 7,(hl)
3842   101A 28 1C           jr z,l1038h
3843   101C 23              inc hl
3844   101D 22 1F 40        ld (0401fh),hl
3845   1020 EF              rst 28h                 ; FP-CALC
3846   1021 E0              .byte $E0               ;;get-mem-0
3847   1022 E2              .byte $E2               ;;get-mem-2
3848   1023 0F              .byte $0F               ;;addition
3849   1024 C0              .byte $C0               ;;st-mem-0
3850   1025 02              .byte $02               ;;delete
3851   1026 34              .byte $34               ;;end-calc
3852   1027 CD 3A 10        call sub_103ah
3853   102A D8              ret c
3854   102B 2A 1F 40        ld hl,(0401fh)
3855   102E 11 0F 00        ld de,0000fh
3856   1031 19              add hl,de
3857   1032 5E              ld e,(hl)
3858   1033 23              inc hl
3859   1034 56              ld d,(hl)
3860   1035 EB              ex de,hl
3861   1036 18 35           jr l106dh
3862   1038             
3863   1038             ; REPORT-1
3864   1038             l1038h:
3865   1038 CF              rst 08h                 ; ERROR-1
3866   1039 00              .byte $00               ; NF - Next without For
3867   103A             
3868   103A             ; --------------------------
3869   103A             ; THE 'NEXT-LOOP' SUBROUTINE
3870   103A             ; --------------------------
3871   103A             
3872   103A             ; NEXT-LOOP
3873   103A             sub_103ah:
3874   103A EF              rst 28h                 ; FP-CALC
3875   103B E1              .byte $E1               ;;get-mem-1
3876   103C E0              .byte $E0               ;;get-mem-0
3877   103D E2              .byte $E2               ;;get-mem-2
3878   103E 32              .byte $32               ;;less-0
3879   103F 00              .byte $00               ;;jump-true
3880   1040 02              .byte $02               ;;to LMT-V-VAL
3881   1041 01              .byte $01               ;;exchange
3882   1042             ; LMT-V-VAL
3883   1042 03              .byte $03               ;;subtract
3884   1043 33              .byte $33               ;;greater-0
3885   1044 00              .byte $00               ;;jump-true
3886   1045 04              .byte $04               ;;to L0E69, IMPOSS
3887   1046 34              .byte $34               ;;end-calc
3888   1047             
3889   1047 A7              and a
3890   1048 C9              ret
3891   1049             
3892   1049             ; ?
3893   1049 34              inc (hl)
3894   104A 37              scf
3895   104B C9              ret
3896   104C             
3897   104C             ; --------------------------
3898   104C             ; THE 'RAND' COMMAND ROUTINE
3899   104C             ; --------------------------
3900   104C             
3901   104C             ; RAND
3902   104C             sub_104Ch:
3903   104C CD 88 10        call sub_1088h
3904   104F 78              ld a,b
3905   1050 B1              or c
3906   1051 20 04           jr nz,l1057h
3907   1053 ED 4B 34 40     ld bc,(04034h)          ; If 0, use FRAMES value
3908   1057             
3909   1057             ; SET-SEED
3910   1057             l1057h:
3911   1057 ED 43 32 40     ld (04032h),bc          ; Store SEED
3912   105B C9              ret
3913   105C             
3914   105C             
3915   105C             ; ---------------------------
3916   105C             ; THE 'TEMPO' COMMAND ROUTINE
3917   105C             ; ---------------------------
3918   105C             
3919   105C             ; TEMPO
3920   105C             sub_105ch:
3921   105C CD 83 10        call sub_1083h
3922   105F 32 21 40        ld (04021h),a
3923   1062 C9              ret
3924   1063             
3925   1063             ; --------------------------
3926   1063             ; THE 'CONT' COMMAND ROUTINE
3927   1063             ; --------------------------
3928   1063             
3929   1063             ; CONT
3930   1063             sub_1063h:
3931   1063 2A 2B 40        ld hl,(0402bh)
3932   1066 18 05           jr l106dh
3933   1068             
3934   1068             ; --------------------------
3935   1068             ; THE 'GOTO' COMMAND ROUTINE
3936   1068             ; --------------------------
3937   1068             
3938   1068             ; GOTO
3939   1068             sub_1068h:
3940   1068 CD 88 10        call sub_1088h
3941   106B 60              ld h,b
3942   106C 69              ld l,c
3943   106D             
3944   106D             ; GOTO-2
3945   106D             l106dh:
3946   106D 7C              ld a,h
3947   106E FE 28           cp 028h
3948   1070 30 1C           jr nc,l108eh
3949   1072 CD 6A 0B        call sub_0b6ah
3950   1075 22 0A 40        ld (0400ah),hl          ; NXTLIN - Address of next line to be executed (ZX81 was $4029)
3951   1078 C9              ret
3952   1079             
3953   1079             ; --------------------------
3954   1079             ; THE 'POKE' COMMAND ROUTINE
3955   1079             ; --------------------------
3956   1079             ; POKE
3957   1079             sub_1079h
3958   1079 CD 83 10        call sub_1083h
3959   107C                 ; missing negative checks
3960   107C F5              push af
3961   107D CD 88 10        call sub_1088h
3962   1080 F1              pop af
3963   1081                 ; missing code that was in the ZX81 ROM, left over from the ZX80 and not requried
3964   1081 02              ld (bc),a
3965   1082 C9              ret
3966   1083             
3967   1083             ; FIND-SHORT
3968   1083             sub_1083h:
3969   1083 CD C5 17        call sub_17c5h          ; routine FP-TO-A
3970   1086 18 03           jr l108bh
3971   1088             
3972   1088             ; -----------------------------
3973   1088             ; THE 'FIND INTEGER' SUBROUTINE
3974   1088             ; -----------------------------
3975   1088             
3976   1088             ; FIND-INT
3977   1088             sub_1088h:
3978   1088 CD 82 17        call sub_1782h          ; routine FP-TO-BC
3979   108B             l108bh:
3980   108B 38 01           jr c,l108eh             ; error
3981   108D C8              ret z                   ; Return if valid (0-65535)
3982   108E             
3983   108E             ; REPORT-B
3984   108E             l108eh:
3985   108E CF              rst 08h                 ; ERROR-1
3986   108F 0A              .byte $0A               ; IR - Integer out of Range
3987   1090             
3988   1090             ; ---------------------------
3989   1090             ; THE 'GOSUB' COMMAND ROUTINE
3990   1090             ; ---------------------------
3991   1090             
3992   1090             ; GOSUB
3993   1090             sub_1090h:
3994   1090 2A 07 40        ld hl,(04007h)
3995   1093 23              inc hl
3996   1094 E3              ex (sp),hl
3997   1095 E5              push hl
3998   1096 ED 73 02 40     ld (04002h),sp
3999   109A CD 68 10        call sub_1068h
4000   109D 01 06 00        ld bc,l0006h
4001   10A0             
4002   10A0             ; --------------------------
4003   10A0             ; THE 'TEST ROOM' SUBROUTINE
4004   10A0             ; --------------------------
4005   10A0             
4006   10A0             ; TEST-ROOM
4007   10A0             sub_10a0h:
4008   10A0 2A 1C 40        ld hl,(0401ch)
4009   10A3 09              add hl,bc
4010   10A4 38 08           jr c,l10aeh
4011   10A6 EB              ex de,hl
4012   10A7 21 24 00        ld hl,00024h
4013   10AA 19              add hl,de
4014   10AB ED 72           sbc hl,sp
4015   10AD D8              ret c
4016   10AE             
4017   10AE             ; REPORT-4
4018   10AE             l10aeh:
4019   10AE 2E 03           ld l,003h
4020   10B0 C3 59 00        jp l0059h
4021   10B3             
4022   10B3             ; ----------------------------
4023   10B3             ; THE 'RETURN' COMMAND ROUTINE
4024   10B3             ; ----------------------------
4025   10B3             
4026   10B3             ; RETURN
4027   10B3             sub_10b3h:
4028   10B3 E1              pop hl
4029   10B4 E3              ex (sp),hl
4030   10B5 7C              ld a,h
4031   10B6 FE 3E           cp 03eh
4032   10B8 28 06           jr z,l10c0h
4033   10BA ED 73 02 40     ld (04002h),sp
4034   10BE 18 AD           jr l106dh
4035   10C0             
4036   10C0             ; REPORT-7
4037   10C0             l10c0h:
4038   10C0 E3              ex (sp),hl
4039   10C1 E5              push hl
4040   10C2 CF              rst 08h                 ; ERROR-1
4041   10C3 06              .byte   $06             ; RG - RETURN without GOSUB
4042   10C4             
4043   10C4             ; ---------------------------
4044   10C4             ; THE 'INPUT' COMMAND ROUTINE
4045   10C4             ; ---------------------------
4046   10C4             
4047   10C4             ; INPUT
4048   10C4             sub_10c4h:
4049   10C4 FD CB 08 7E     bit 7,(iy+008h)
4050   10C8 20 32           jr nz,l10fch
4051   10CA CD 9B 16        call sub_169bh
4052   10CD 21 2D 40        ld hl,0402dh
4053   10D0 CB EE           set 5,(hl)
4054   10D2 CB B6           res 6,(hl)
4055   10D4 3A 01 40        ld a,(04001h)
4056   10D7 E6 40           and 040h
4057   10D9 01 02 00        ld bc,l0002h
4058   10DC 20 02           jr nz,l10e0h
4059   10DE 0E 04           ld c,004h
4060   10E0             l10e0h:
4061   10E0 B6              or (hl)
4062   10E1 77              ld (hl),a
4063   10E2 F7              rst 30h
4064   10E3 36 76           ld (hl),076h
4065   10E5 79              ld a,c
4066   10E6 0F              rrca
4067   10E7             l10e7h:
4068   10E7 0F              rrca
4069   10E8 38 05           jr c,l10efh
4070   10EA 3E 0B           ld a,00bh
4071   10EC 12              ld (de),a
4072   10ED 2B              dec hl
4073   10EE 77              ld (hl),a
4074   10EF             l10efh:
4075   10EF 2B              dec hl
4076   10F0 36 7F           ld (hl),07fh
4077   10F2 2A 39 40        ld hl,(04039h)
4078   10F5 22 30 40        ld (04030h),hl
4079   10F8 E1              pop hl
4080   10F9 C3 58 05        jp l0558h               ; routine LOWER
4081   10FC             l10fch:
4082   10FC CF              rst 08h                 ; ERROR-1
4083   10FD 07              .byte $07               ; II - Illegal Input
4084   10FE CD 88 10        call sub_1088h
4085   1101 21 3B 40        ld hl,0403bh
4086   1104 CB 7E           bit 7,(hl)
4087   1106 20 0E           jr nz,l1116h
4088   1108 03              inc bc
4089   1109 ED 43 34 40     ld (04034h),bc
4090   110D CD 93 02        call sub_0293h
4091   1110             l1110h:
4092   1110 FD 36 35 FF     ld (iy+035h),0ffh
4093   1114 18 2A           jr sub_1140h            ; routine DEBOUNCE
4094   1116             l1116h:
4095   1116 78              ld a,b
4096   1117 E6 80           and 080h
4097   1119 57              ld d,a
4098   111A CB F8           set 7,b
4099   111C ED 43 34 40     ld (04034h),bc
4100   1120             l1120h:
4101   1120 ED 4B 34 40     ld bc,(04034h)
4102   1124 CB B8           res 7,b
4103   1126 78              ld a,b
4104   1127 B1              or c
4105   1128 B2              or d
4106   1129 28 E5           jr z,l1110h
4107   112B 7E              ld a,(hl)
4108   112C 1F              rra
4109   112D 38 E1           jr c,l1110h
4110   112F 18 EF           jr l1120h
4111   1131             
4112   1131             ; ---------------------------------
4113   1131             ; THE 'BEEP' AND 'NOBEEP' FUNCTIONS
4114   1131             ; ---------------------------------
4115   1131             
4116   1131             ; These functions use bit 5 of the CDFLAG to control the keyboard sounds
4117   1131             ; 0 to make sounds, 1 for silence
4118   1131             
4119   1131             ; BEEP
4120   1131             sub_1131h:
4121   1131 FD CB 3B AE     res 5,(iy+03bh)         ; Clear bit 5 of CDFLAG
4122   1135 C9              ret
4123   1136             
4124   1136             ; NOBEEP
4125   1136             sub_1136h:
4126   1136 FD CB 3B EE     set 5,(iy+03bh)         ; Set bit 5 of CDFLAG
4127   113A C9              ret
4128   113B             
4129   113B             ; ----------------------
4130   113B             ; THE 'BREAK' SUBROUTINE
4131   113B             ; ----------------------
4132   113B             
4133   113B             ; BREAK-1
4134   113B             sub_113bh:
4135   113B 3E 7F           ld a,07fh
4136   113D DB FE           in a,(0feh)
4137   113F 1F              rra
4138   1140             
4139   1140             ; -------------------------
4140   1140             ; THE 'DEBOUNCE' SUBROUTINE
4141   1140             ; -------------------------
4142   1140             
4143   1140             ; DEBOUNCE
4144   1140             sub_1140h:
4145   1140 FD CB 3B 86     res 0,(iy+03bh)
4146   1144 3E FF           ld a,0ffh
4147   1146 32 27 40        ld (04027h),a
4148   1149 C9              ret
4149   114A             
4150   114A             ; -------------------------
4151   114A             ; THE 'SCANNING' SUBROUTINE
4152   114A             ; -------------------------
4153   114A             
4154   114A             ; SCANNING
4155   114A             sub_114ah:
4156   114A DF              rst 18h
4157   114B 06 00           ld b,000h
4158   114D C5              push bc
4159   114E             
4160   114E             ; S-LOOP-1
4161   114E             l114eh:
4162   114E FE 43           cp 043h
4163   1150 20 2F           jr nz,l1181h
4164   1152             
4165   1152             ; ------------------
4166   1152             ; THE 'RND' FUNCTION
4167   1152             ; ------------------
4168   1152 CD 23 0F        call sub_0f23h
4169   1155 28 28           jr z,l117fh
4170   1157 ED 4B 32 40     ld bc,(04032h)
4171   115B CD 18 17        call sub_1718h
4172   115E EF              rst 28h                 ; FP-CALC
4173   115F A1              .byte    $A1            ;;stk-one
4174   1160 0F              .byte    $0F            ;;addition
4175   1161 30              .byte    $30            ;;stk-data
4176   1162 37              .byte    $37            ;;Exponent: $87, Bytes: 1
4177   1163 16              .byte    $16            ;;(+00,+00,+00)
4178   1164 04              .byte    $04            ;;multiply
4179   1165 30              .byte    $30            ;;stk-data
4180   1166 80              .byte    $80            ;;Bytes: 3
4181   1167 41              .byte    $41            ;;Exponent $91
4182   1168 00 00 80        .byte    $00,$00,$80    ;;(+00)
4183   116B 2E              .byte    $2E            ;;n-mod-m
4184   116C 02              .byte    $02            ;;delete
4185   116D A1              .byte    $A1            ;;stk-one
4186   116E 03              .byte    $03            ;;subtract
4187   116F 2D              .byte    $2D            ;;duplicate
4188   1170 34              .byte    $34            ;;end-calc
4189   1171 CD 82 17        call sub_1782h
4190   1174 ED 43 32 40     ld (04032h),bc
4191   1178 7E              ld a,(hl)
4192   1179 A7              and a
4193   117A 28 03           jr z,l117fh
4194   117C D6 10           sub 010h
4195   117E 77              ld (hl),a
4196   117F             l117fh:
4197   117F 18 0D           jr l118eh
4198   1181             
4199   1181             ; S-TEST-PI
4200   1181             l1181h:
4201   1181 FE 45           cp 045h
4202   1183 20 0D           jr nz,l1192h
4203   1185             
4204   1185             ; -------------------
4205   1185             ; THE 'PI' EVALUATION
4206   1185             ; -------------------
4207   1185             
4208   1185 CD 23 0F        call sub_0f23h
4209   1188 28 04           jr z,l118eh
4210   118A EF              rst 28h                 ; FP-CALC
4211   118B A3              .byte $A3               ;;stk-pi/2
4212   118C 34              .byte $34               ;;end-calc
4213   118D 34              inc (hl)
4214   118E             
4215   118E             ; S-PI-END
4216   118E             l118eh:
4217   118E E7              rst 20h
4218   118F C3 78 12        jp l1278h
4219   1192             
4220   1192             
4221   1192             ; not S-TST-INK
4222   1192             l1192h:
4223   1192 FE 44           cp 044h
4224   1194 20 11           jr nz,l11a7h
4225   1196 CD 3D 03        call sub_033dh
4226   1199 44              ld b,h
4227   119A             l119ah:
4228   119A 4D              ld c,l
4229   119B 51              ld d,c
4230   119C 14              inc d
4231   119D C4 5E 09        call nz,sub_095eh       ; routine DECODE
4232   11A0 7A              ld a,d
4233   11A1 8A              adc a,d
4234   11A2 42              ld b,d
4235   11A3 4F              ld c,a
4236   11A4 EB              ex de,hl
4237   11A5 18 3B           jr l11e2h
4238   11A7             
4239   11A7             ; S-ALPHANUM
4240   11A7             l11a7h:
4241   11A7 CD CA 16        call sub_16cah
4242   11AA 38 6E           jr c,l121ah
4243   11AC FE 1B           cp 01bh
4244   11AE CA 3C 12        jp z,l123ch
4245   11B1 01 D8 09        ld bc,009d8h
4246   11B4 FE 16           cp 016h
4247   11B6 28 5D           jr z,l1215h
4248   11B8 FE 10           cp 010h
4249   11BA 20 0F           jr nz,l11cbh
4250   11BC CD 4A 00        call sub_004ah
4251   11BF CD 4A 11        call sub_114ah          ; routine SCANNING
4252   11C2 FE 11           cp 011h
4253   11C4 20 2E           jr nz,l11f4h
4254   11C6 CD 4A 00        call sub_004ah
4255   11C9 18 22           jr l11edh
4256   11CB             
4257   11CB             ; S-QUOTE
4258   11CB             l11cbh:
4259   11CB FE 0B           cp 00bh
4260   11CD 20 28           jr nz,l11f7h
4261   11CF CD 4A 00        call sub_004ah
4262   11D2 E5              push hl
4263   11D3 18 03           jr l11d8h
4264   11D5             
4265   11D5             ; S-Q-AGAIN
4266   11D5             l11d5h:
4267   11D5 CD 4A 00        call sub_004ah
4268   11D8             
4269   11D8             ; S-QUOTE-S
4270   11D8             l11d8h:
4271   11D8 FE 0B           cp 00bh
4272   11DA 20 14           jr nz,l11f0h
4273   11DC D1              pop de
4274   11DD A7              and a
4275   11DE ED 52           sbc hl,de
4276   11E0 44              ld b,h
4277   11E1 4D              ld c,l
4278   11E2             
4279   11E2             ; S-STRING
4280   11E2             l11e2h:
4281   11E2 21 01 40        ld hl,04001h
4282   11E5 CB B6           res 6,(hl)
4283   11E7 CB 7E           bit 7,(hl)
4284   11E9 C4 B8 14        call nz,sub_14b8h
4285   11EC E7              rst 20h
4286   11ED             
4287   11ED             ; S-J-CONT-3
4288   11ED             l11edh:
4289   11ED C3 7D 12        jp l127dh
4290   11F0             
4291   11F0             ; S-Q-NL
4292   11F0             l11f0h:
4293   11F0 FE 76           cp 076h
4294   11F2 20 E1           jr nz,l11d5h
4295   11F4             
4296   11F4             ; S-RPT-C
4297   11F4             l11f4h:
4298   11F4 C3 17 0F        jp l0f17h               ; to REPORT-C - Invalid Expression
4299   11F7             
4300   11F7             ; S-FUNCTION
4301   11F7             l11f7h:
4302   11F7 D6 C0           sub 0c0h
4303   11F9 38 F9           jr c,l11f4h
4304   11FB 01 EC 04        ld bc,l04ech
4305   11FE FE 13           cp 013h
4306   1200 28 13           jr z,l1215h
4307   1202 30 F0           jr nc,l11f4h
4308   1204 06 10           ld b,010h
4309   1206 C6 D9           add a,0d9h
4310   1208 4F              ld c,a
4311   1209 FE DC           cp 0dch
4312   120B 30 02           jr nc,l120fh
4313   120D CB B1           res 6,c
4314   120F             
4315   120F             ; S-NO-TO-$
4316   120F             l120fh:
4317   120F FE EA           cp 0eah
4318   1211 38 02           jr c,l1215h
4319   1213 CB B9           res 7,c
4320   1215             
4321   1215             ; S-PUSH-PO
4322   1215             l1215h:
4323   1215 C5              push bc
4324   1216 E7              rst 20h
4325   1217 C3 4E 11        jp l114eh
4326   121A             
4327   121A             ; S-LTR-DGT
4328   121A             l121ah:
4329   121A FE 26           cp 026h
4330   121C 38 1E           jr c,l123ch
4331   121E CD 11 13        call 01311h
4332   1221 DA C8 0E        jp c,l0ec8h
4333   1224 CC 9C 13        call z,sub_139ch
4334   1227 3A 01 40        ld a,(04001h)
4335   122A FE C0           cp 0c0h
4336   122C 38 4E           jr c,l127ch
4337   122E 23              inc hl
4338   122F ED 5B 1C 40     ld de,(0401ch)
4339   1233 CD ED 1B        call sub_1bedh
4340   1236 EB              ex de,hl
4341   1237 22 1C 40        ld (0401ch),hl
4342   123A 18 40           jr l127ch
4343   123C             
4344   123C             ; S-DECIMAL
4345   123C             l123ch:
4346   123C CD 23 0F        call sub_0f23h
4347   123F 20 23           jr nz,l1264h
4348   1241 CD D1 16        call sub_16d1h
4349   1244 DF              rst 18h
4350   1245 01 06 00        ld bc,l0006h
4351   1248 CD 30 0B        call sub_0b30h          ; MAKE-ROOM
4352   124B 23              inc hl
4353   124C 36 7E           ld (hl),07eh
4354   124E 23              inc hl
4355   124F EB              ex de,hl
4356   1250 2A 1C 40        ld hl,(0401ch)
4357   1253 0E 05           ld c,005h
4358   1255 A7              and a
4359   1256 ED 42           sbc hl,bc
4360   1258 22 1C 40        ld (0401ch),hl
4361   125B ED B0           ldir
4362   125D EB              ex de,hl
4363   125E 2B              dec hl
4364   125F CD 4D 00        call l004dh
4365   1262 18 14           jr l1278h
4366   1264             
4367   1264             ; S-STK-DEC
4368   1264             l1264h:
4369   1264 E7              rst 20h
4370   1265 FE 7E           cp 07eh
4371   1267 20 FB           jr nz,l1264h
4372   1269 23              inc hl
4373   126A ED 5B 1C 40     ld de,(0401ch)
4374   126E CD ED 1B        call sub_1bedh
4375   1271 ED 53 1C 40     ld (0401ch),de
4376   1275 22 16 40        ld (04016h),hl          ; CH.ADD - Address of next character to interpret
4377   1278             
4378   1278             ; S-NUMERIC
4379   1278             l1278h:
4380   1278 FD CB 01 F6     set 6,(iy+001h)         ; set FLAGS  - 1 = Numeric result
4381   127C             
4382   127C             ; S-CONT-2
4383   127C             l127ch:
4384   127C DF              rst 18h
4385   127D             
4386   127D             ; S-CONT-3
4387   127D             l127dh:
4388   127D FE 10           cp 010h
4389   127F 20 0C           jr nz,l128dh
4390   1281 FD CB 01 76     bit 6,(iy+001h)         ; check FLAGS - 0 = string or 1 = numeric result
4391   1285 20 2A           jr nz,l12b1h
4392   1287 CD 58 14        call sub_1458h
4393   128A E7              rst 20h
4394   128B 18 F0           jr l127dh
4395   128D             
4396   128D             ; S-OPERTR
4397   128D             l128dh:
4398   128D 01 C3 00        ld bc,000c3h
4399   1290 FE 12           cp 012h
4400   1292 38 1D           jr c,l12b1h
4401   1294 D6 16           sub 016h
4402   1296 30 04           jr nc,l129ch
4403   1298 C6 0D           add a,00dh
4404   129A 18 0E           jr l12aah
4405   129C             
4406   129C             ; SUBMLTDIV
4407   129C             l129ch:
4408   129C FE 03           cp 003h
4409   129E 38 0A           jr c,l12aah
4410   12A0 D6 C0           sub 0c0h
4411   12A2 38 0D           jr c,l12b1h
4412   12A4 FE 06           cp 006h
4413   12A6 30 09           jr nc,l12b1h
4414   12A8 C6 03           add a,003h
4415   12AA             
4416   12AA             ; GET-PRIO
4417   12AA             l12aah:
4418   12AA 81              add a,c
4419   12AB 4F              ld c,a
4420   12AC 21 41 12        ld hl, l1304h - $C3     ; offset to base of the priorities table (=$1241)
4421   12AF 09              add hl,bc
4422   12B0 46              ld b,(hl)
4423   12B1             
4424   12B1             ; S-LOOP
4425   12B1             l12b1h:
4426   12B1 D1              pop de
4427   12B2 7A              ld a,d
4428   12B3 B8              cp b
4429   12B4 38 2C           jr c,l12e2h
4430   12B6 A7              and a
4431   12B7 CA 18 00        jp z,l0018h
4432   12BA C5              push bc
4433   12BB D5              push de
4434   12BC CD 23 0F        call sub_0f23h
4435   12BF 28 09           jr z,l12cah
4436   12C1 7B              ld a,e
4437   12C2 E6 3F           and 03fh
4438   12C4 47              ld b,a
4439   12C5 EF              rst 28h
4440   12C6 37              scf
4441   12C7 34              inc (hl)
4442   12C8 18 09           jr l12d3h
4443   12CA             
4444   12CA             ; S-SYNTEST
4445   12CA             l12cah:
4446   12CA 7B              ld a,e
4447   12CB FD AE 01        xor (iy+001h)
4448   12CE E6 40           and 040h
4449   12D0             
4450   12D0             ; S-RPORT-C
4451   12D0             l12d0h:
4452   12D0 C2 17 0F        jp nz,l0f17h            ; to REPORT-C - Invalid Expression
4453   12D3             
4454   12D3             ; S-RUNTEST
4455   12D3             l12d3h:
4456   12D3 D1              pop de
4457   12D4 21 01 40        ld hl,04001h
4458   12D7 CB F6           set 6,(hl)
4459   12D9 CB 7B           bit 7,e
4460   12DB 20 02           jr nz,l12dfh
4461   12DD CB B6           res 6,(hl)
4462   12DF             
4463   12DF             ; S-LOOPEND
4464   12DF             l12dfh:
4465   12DF C1              pop bc
4466   12E0 18 CF           jr l12b1h
4467   12E2             
4468   12E2             ; S-TIGHTER
4469   12E2             l12e2h:
4470   12E2 D5              push de
4471   12E3 79              ld a,c
4472   12E4 FD CB 01 76     bit 6,(iy+001h)         ; check FLAGS - 0 = string or 1 = numeric result
4473   12E8 20 15           jr nz,l12ffh
4474   12EA E6 3F           and 03fh
4475   12EC C6 08           add a,008h
4476   12EE 4F              ld c,a
4477   12EF FE 10           cp 010h
4478   12F1 20 04           jr nz,l12f7h
4479   12F3 CB F1           set 6,c
4480   12F5 18 08           jr l12ffh
4481   12F7             
4482   12F7             ; S-NOT-AND
4483   12F7             l12f7h:
4484   12F7 38 D7           jr c,l12d0h
4485   12F9 FE 17           cp 017h
4486   12FB 28 02           jr z,l12ffh
4487   12FD CB F9           set 7,c
4488   12FF             
4489   12FF             ; S-NEXT
4490   12FF             l12ffh:
4491   12FF C5              push bc
4492   1300 E7              rst 20h
4493   1301 C3 4E 11        jp l114eh
4494   1304             
4495   1304             ; -------------------------
4496   1304             ; THE 'TABLE OF PRIORITIES'
4497   1304             ; -------------------------
4498   1304             
4499   1304             ; tbl-pri
4500   1304             l1304h:
4501   1304 06              .byte    $06            ;       '-'
4502   1305 08              .byte    $08            ;       '*'
4503   1306 08              .byte    $08            ;       '/'
4504   1307 0A              .byte    $0A            ;       '**'
4505   1308 02              .byte    $02            ;       'OR'
4506   1309 03              .byte    $03            ;       'AND'
4507   130A 05              .byte    $05            ;       '<='
4508   130B 05              .byte    $05            ;       '>='
4509   130C 05              .byte    $05            ;       '<>'
4510   130D 05              .byte    $05            ;       '>'
4511   130E 05              .byte    $05            ;       '<'
4512   130F 05              .byte    $05            ;       '='
4513   1310 06              .byte    $06            ;       '+'
4514   1311             
4515   1311             
4516   1311             ; --------------------------
4517   1311             ; THE 'LOOK-VARS' SUBROUTINE
4518   1311             ; --------------------------
4519   1311             
4520   1311             ; LOOK-VARS
4521   1311             sub_1311h:
4522   1311 FD CB 01 F6     set 6,(iy+001h)         ; set FLAGS - 1 = numeric result
4523   1315 DF              rst 18h
4524   1316 CD C6 16        call sub_16c6h
4525   1319 D2 17 0F        jp nc,l0f17h            ; to REPORT-C - Invalid Expression
4526   131C E5              push hl
4527   131D 4F              ld c,a
4528   131E E7              rst 20h
4529   131F E5              push hl
4530   1320 CB A9           res 5,c
4531   1322 FE 10           cp 010h
4532   1324 28 17           jr z,l133dh
4533   1326 CB F1           set 6,c
4534   1328 FE 0D           cp 00dh
4535   132A 28 0C           jr z,l1338h
4536   132C CB E9           set 5,c
4537   132E             
4538   132E             ; V-CHAR
4539   132E             l132eh:
4540   132E CD CA 16        call sub_16cah
4541   1331 30 0A           jr nc,l133dh
4542   1333 CB B1           res 6,c
4543   1335 E7              rst 20h
4544   1336 18 F6           jr l132eh
4545   1338             
4546   1338             ; V-STR-VAR
4547   1338             l1338h:
4548   1338 E7              rst 20h
4549   1339 FD CB 01 B6     res 6,(iy+001h)         ; set FLAGS - 0 = string result
4550   133D             
4551   133D             ; V-RUN/SYN
4552   133D             l133dh:
4553   133D 41              ld b,c
4554   133E CD 23 0F        call sub_0f23h
4555   1341 20 08           jr nz,l134bh
4556   1343 79              ld a,c
4557   1344 E6 E0           and 0e0h
4558   1346 CB FF           set 7,a
4559   1348 4F              ld c,a
4560   1349 18 34           jr l137fh
4561   134B             
4562   134B             ; V-RUN
4563   134B             l134bh:
4564   134B 2A 10 40        ld hl,(04010h)
4565   134E             
4566   134E             ; V-EACH
4567   134E             l134eh:
4568   134E 7E              ld a,(hl)
4569   134F E6 7F           and 07fh
4570   1351 28 2A           jr z,l137dh
4571   1353 B9              cp c
4572   1354 20 1F           jr nz,l1375h
4573   1356 17              rla
4574   1357 87              add a,a
4575   1358 F2 8A 13        jp p,l138ah
4576   135B 38 2D           jr c,l138ah
4577   135D D1              pop de
4578   135E D5              push de
4579   135F E5              push hl
4580   1360             
4581   1360             ; V-MATCHES
4582   1360             l1360h:
4583   1360 23              inc hl
4584   1361             
4585   1361             ; V-SPACES
4586   1361             l1361h:
4587   1361 1A              ld a,(de)
4588   1362 13              inc de
4589   1363 A7              and a
4590   1364 28 FB           jr z,l1361h
4591   1366 BE              cp (hl)
4592   1367 28 F7           jr z,l1360h
4593   1369 F6 80           or 080h
4594   136B BE              cp (hl)
4595   136C 20 06           jr nz,l1374h
4596   136E 1A              ld a,(de)
4597   136F CD CA 16        call sub_16cah
4598   1372 30 15           jr nc,l1389h
4599   1374             
4600   1374             ; V-GET-PTR
4601   1374             l1374h:
4602   1374 E1              pop hl
4603   1375             
4604   1375             ; V-NEXT
4605   1375             l1375h:
4606   1375 C5              push bc
4607   1376 CD 84 0B        call sub_0b84h
4608   1379 EB              ex de,hl
4609   137A C1              pop bc
4610   137B 18 D1           jr l134eh
4611   137D             
4612   137D             ; V-80-BYTE
4613   137D             l137dh:
4614   137D CB F8           set 7,b
4615   137F             
4616   137F             ; V-SYNTAX
4617   137F             l137fh:
4618   137F D1              pop de
4619   1380 DF              rst 18h
4620   1381 FE 10           cp 010h
4621   1383 28 09           jr z,l138eh
4622   1385 CB E8           set 5,b
4623   1387 18 0D           jr l1396h
4624   1389             
4625   1389             ; V-FOUND-1
4626   1389             l1389h:
4627   1389 D1              pop de
4628   138A             
4629   138A             ; V-FOUND-2
4630   138A             l138ah:
4631   138A D1              pop de
4632   138B D1              pop de
4633   138C E5              push hl
4634   138D DF              rst 18h
4635   138E             
4636   138E             ; V-PASS
4637   138E             l138eh:
4638   138E CD CA 16        call sub_16cah
4639   1391 30 03           jr nc,l1396h
4640   1393 E7              rst 20h
4641   1394 18 F8           jr l138eh
4642   1396             
4643   1396             ; V-END
4644   1396             l1396h:
4645   1396 E1              pop hl
4646   1397 CB 10           rl b
4647   1399 CB 70           bit 6,b
4648   139B C9              ret
4649   139C             
4650   139C             ; ------------------------
4651   139C             ; THE 'STK-VAR' SUBROUTINE
4652   139C             ; ------------------------
4653   139C             
4654   139C             ; STK-VAR
4655   139C             sub_139ch:
4656   139C AF              xor a
4657   139D 47              ld b,a
4658   139E CB 79           bit 7,c
4659   13A0 20 4B           jr nz,l13edh
4660   13A2 CB 7E           bit 7,(hl)
4661   13A4 20 0E           jr nz,l13b4h
4662   13A6 3C              inc a
4663   13A7             
4664   13A7             ; SV-SIMPLE$
4665   13A7             l13a7h:
4666   13A7 23              inc hl
4667   13A8 4E              ld c,(hl)
4668   13A9 23              inc hl
4669   13AA 46              ld b,(hl)
4670   13AB 23              inc hl
4671   13AC EB              ex de,hl
4672   13AD CD B8 14        call sub_14b8h
4673   13B0 DF              rst 18h
4674   13B1 C3 4F 14        jp l144fh
4675   13B4             
4676   13B4             ; SV-ARRAYS
4677   13B4             l13b4h:
4678   13B4 23              inc hl
4679   13B5 23              inc hl
4680   13B6 23              inc hl
4681   13B7 46              ld b,(hl)
4682   13B8 CB 71           bit 6,c
4683   13BA 28 0A           jr z,l13c6h
4684   13BC 05              dec b
4685   13BD 28 E8           jr z,l13a7h
4686   13BF EB              ex de,hl
4687   13C0 DF              rst 18h
4688   13C1 FE 10           cp 010h
4689   13C3 20 61           jr nz,l1426h
4690   13C5 EB              ex de,hl
4691   13C6             
4692   13C6             ; SV-PTR
4693   13C6             l13c6h:
4694   13C6 EB              ex de,hl
4695   13C7 18 24           jr l13edh
4696   13C9             
4697   13C9             ; SV-COMMA
4698   13C9             l13c9h:
4699   13C9 E5              push hl
4700   13CA DF              rst 18h
4701   13CB E1              pop hl
4702   13CC FE 1A           cp 01ah
4703   13CE 28 20           jr z,l13f0h
4704   13D0 CB 79           bit 7,c
4705   13D2 28 52           jr z,l1426h
4706   13D4 CB 71           bit 6,c
4707   13D6 20 06           jr nz,l13deh
4708   13D8 FE 11           cp 011h
4709   13DA 20 3C           jr nz,l1418h
4710   13DC E7              rst 20h
4711   13DD C9              ret
4712   13DE             
4713   13DE             ; SV-CLOSE
4714   13DE             l13deh:
4715   13DE FE 11           cp 011h
4716   13E0 28 6C           jr z,l144eh
4717   13E2 FE 41           cp 041h
4718   13E4 20 32           jr nz,l1418h
4719   13E6             
4720   13E6             ; SV-CH-ADD
4721   13E6             l13e6h:
4722   13E6 DF              rst 18h
4723   13E7 2B              dec hl
4724   13E8 22 16 40        ld (04016h),hl          ; CH.ADD - Address of next character to interpret
4725   13EB 18 5E           jr l144bh
4726   13ED             
4727   13ED             ; SV-COUNT
4728   13ED             l13edh:
4729   13ED 21 00 00        ld hl,l0000h
4730   13F0             
4731   13F0             ; SV-LOOP
4732   13F0             l13f0h:
4733   13F0 E5              push hl
4734   13F1 E7              rst 20h
4735   13F2 E1              pop hl
4736   13F3 79              ld a,c
4737   13F4 FE C0           cp 0c0h
4738   13F6 20 09           jr nz,l1401h
4739   13F8 DF              rst 18h
4740   13F9 FE 11           cp 011h
4741   13FB 28 51           jr z,l144eh
4742   13FD FE 41           cp 041h
4743   13FF 28 E5           jr z,l13e6h
4744   1401             
4745   1401             ; SV-MULT
4746   1401             l1401h:
4747   1401 C5              push bc
4748   1402 E5              push hl
4749   1403 CD F4 14        call sub_14f4h
4750   1406 E3              ex (sp),hl
4751   1407 EB              ex de,hl
4752   1408 CD D2 14        call sub_14d2h
4753   140B 38 19           jr c,l1426h
4754   140D 0B              dec bc
4755   140E CD FA 14        call sub_14fah
4756   1411 09              add hl,bc
4757   1412 D1              pop de
4758   1413 C1              pop bc
4759   1414 10 B3           djnz l13c9h
4760   1416 CB 79           bit 7,c
4761   1418             
4762   1418             ; SV-RPT-C
4763   1418             l1418h:
4764   1418 20 66           jr nz,l1480h
4765   141A E5              push hl
4766   141B CB 71           bit 6,c
4767   141D 20 13           jr nz,l1432h
4768   141F 42              ld b,d
4769   1420 4B              ld c,e
4770   1421 DF              rst 18h
4771   1422 FE 11           cp 011h
4772   1424 28 02           jr z,l1428h
4773   1426             
4774   1426             ; REPORT-3
4775   1426             l1426h:
4776   1426 CF              rst 08h                 ; ERROR-1
4777   1427 02              .byte $02               ; BS - Bad Subscript
4778   1428             
4779   1428             ; SV-NUMBER
4780   1428             l1428h:
4781   1428 E7              rst 20h
4782   1429 E1              pop hl
4783   142A 11 05 00        ld de,00005h
4784   142D CD FA 14        call sub_14fah
4785   1430 09              add hl,bc
4786   1431 C9              ret
4787   1432             
4788   1432             ; SV-ELEM$
4789   1432             l1432h:
4790   1432 CD F4 14        call sub_14f4h
4791   1435 E3              ex (sp),hl
4792   1436 CD FA 14        call sub_14fah
4793   1439 C1              pop bc
4794   143A 09              add hl,bc
4795   143B 23              inc hl
4796   143C 42              ld b,d
4797   143D 4B              ld c,e
4798   143E EB              ex de,hl
4799   143F CD B7 14        call sub_14b7h
4800   1442 DF              rst 18h
4801   1443 FE 11           cp 011h
4802   1445 28 07           jr z,l144eh
4803   1447 FE 1A           cp 01ah
4804   1449 20 DB           jr nz,l1426h
4805   144B             
4806   144B             ; SV-SLICE
4807   144B             l144bh:
4808   144B CD 58 14        call sub_1458h
4809   144E             
4810   144E             ; SV-DIM
4811   144E             l144eh:
4812   144E E7              rst 20h
4813   144F             
4814   144F             ; SV-SLICE?
4815   144F             l144fh:
4816   144F FE 10           cp 010h
4817   1451 28 F8           jr z,l144bh
4818   1453 FD CB 01 B6     res 6,(iy+001h)         ; set FLAGS - 0 = string result
4819   1457 C9              ret
4820   1458             
4821   1458             ; ------------------------
4822   1458             ; THE 'SLICING' SUBROUTINE
4823   1458             ; ------------------------
4824   1458             
4825   1458             ; SLICING
4826   1458             sub_1458h:
4827   1458 CD 23 0F        call sub_0f23h
4828   145B C4 ED 15        call nz,sub_15edh       ; routine STK-FETCH
4829   145E E7              rst 20h
4830   145F FE 11           cp 011h
4831   1461 28 50           jr z,l14b3h
4832   1463 D5              push de
4833   1464 AF              xor a
4834   1465 F5              push af
4835   1466 C5              push bc
4836   1467 11 01 00        ld de,l0000h+1
4837   146A DF              rst 18h
4838   146B E1              pop hl
4839   146C FE 41           cp 041h
4840   146E 28 17           jr z,l1487h
4841   1470 F1              pop af
4842   1471 CD D3 14        call sub_14d3h
4843   1474 F5              push af
4844   1475 50              ld d,b
4845   1476 59              ld e,c
4846   1477 E5              push hl
4847   1478 DF              rst 18h
4848   1479 E1              pop hl
4849   147A FE 41           cp 041h
4850   147C 28 09           jr z,l1487h
4851   147E FE 11           cp 011h
4852   1480             
4853   1480             ; SL-RPT-C
4854   1480             l1480h:
4855   1480 C2 17 0F        jp nz,l0f17h            ; to REPORT-C - Invalid Expression
4856   1483 62              ld h,d
4857   1484 6B              ld l,e
4858   1485 18 13           jr l149ah
4859   1487             
4860   1487             ; SL-SECOND
4861   1487             l1487h:
4862   1487 E5              push hl
4863   1488 E7              rst 20h
4864   1489 E1              pop hl
4865   148A FE 11           cp 011h
4866   148C 28 0C           jr z,l149ah
4867   148E F1              pop af
4868   148F CD D3 14        call sub_14d3h
4869   1492 F5              push af
4870   1493 DF              rst 18h
4871   1494 60              ld h,b
4872   1495 69              ld l,c
4873   1496 FE 11           cp 011h
4874   1498 20 E6           jr nz,l1480h
4875   149A             
4876   149A             ; SL-DEFINE
4877   149A             l149ah:
4878   149A F1              pop af
4879   149B E3              ex (sp),hl
4880   149C 19              add hl,de
4881   149D 2B              dec hl
4882   149E E3              ex (sp),hl
4883   149F A7              and a
4884   14A0 ED 52           sbc hl,de
4885   14A2 01 00 00        ld bc,l0000h
4886   14A5 38 07           jr c,l14aeh
4887   14A7 23              inc hl
4888   14A8 A7              and a
4889   14A9 FA 26 14        jp m,l1426h
4890   14AC 44              ld b,h
4891   14AD 4D              ld c,l
4892   14AE             
4893   14AE             ; SL-OVER
4894   14AE             l14aeh:
4895   14AE D1              pop de
4896   14AF FD CB 01 B6     res 6,(iy+001h)         ; set FLAGS - 0 = string result
4897   14B3             
4898   14B3             ; SL-STORE
4899   14B3             l14b3h:
4900   14B3 CD 23 0F        call sub_0f23h
4901   14B6 C8              ret z
4902   14B7             
4903   14B7             ; --------------------------
4904   14B7             ; THE 'STK-STORE' SUBROUTINE
4905   14B7             ; --------------------------
4906   14B7             
4907   14B7             ; STK-ST-0
4908   14B7             sub_14b7h:
4909   14B7 AF              xor a
4910   14B8             
4911   14B8             ; STK-STO-$
4912   14B8             sub_14b8h:
4913   14B8 C5              push bc
4914   14B9 CD E2 1B        call sub_1be2h
4915   14BC C1              pop bc
4916   14BD 2A 1C 40        ld hl,(0401ch)
4917   14C0 77              ld (hl),a
4918   14C1 23              inc hl
4919   14C2 73              ld (hl),e
4920   14C3 23              inc hl
4921   14C4 72              ld (hl),d
4922   14C5 23              inc hl
4923   14C6 71              ld (hl),c
4924   14C7 23              inc hl
4925   14C8 70              ld (hl),b
4926   14C9 23              inc hl
4927   14CA 22 1C 40        ld (0401ch),hl
4928   14CD FD CB 01 B6     res 6,(iy+001h)         ; set FLAGS - 0 = string result
4929   14D1 C9              ret
4930   14D2             
4931   14D2             ; -------------------------
4932   14D2             ; THE 'INT EXP' SUBROUTINES
4933   14D2             ; -------------------------
4934   14D2             
4935   14D2             ; INT-EXP1
4936   14D2             sub_14d2h:
4937   14D2 AF              xor a
4938   14D3             
4939   14D3             ; INT-EXP2
4940   14D3             sub_14d3h:
4941   14D3 D5              push de
4942   14D4 E5              push hl
4943   14D5 F5              push af
4944   14D6 CD 0F 0F        call sub_0f0fh
4945   14D9 F1              pop af
4946   14DA CD 23 0F        call sub_0f23h
4947   14DD 28 12           jr z,l14f1h
4948   14DF F5              push af
4949   14E0 CD 88 10        call sub_1088h
4950   14E3 D1              pop de
4951   14E4 78              ld a,b
4952   14E5 B1              or c
4953   14E6 37              scf
4954   14E7 28 05           jr z,l14eeh
4955   14E9 E1              pop hl
4956   14EA E5              push hl
4957   14EB A7              and a
4958   14EC ED 42           sbc hl,bc
4959   14EE             
4960   14EE             ; I-CARRY
4961   14EE             l14eeh:
4962   14EE 7A              ld a,d
4963   14EF DE 00           sbc a,000h
4964   14F1             
4965   14F1             ; I-RESTORE
4966   14F1             l14f1h:
4967   14F1 E1              pop hl
4968   14F2 D1              pop de
4969   14F3 C9              ret
4970   14F4             
4971   14F4             ; --------------------------
4972   14F4             ; THE 'DE,(DE+1)' SUBROUTINE
4973   14F4             ; --------------------------
4974   14F4             
4975   14F4             ; DE,(DE+1)
4976   14F4             sub_14f4h:
4977   14F4 EB              ex de,hl
4978   14F5 23              inc hl
4979   14F6 5E              ld e,(hl)
4980   14F7 23              inc hl
4981   14F8 56              ld d,(hl)
4982   14F9 C9              ret
4983   14FA             
4984   14FA             ; --------------------------
4985   14FA             ; THE 'GET-HL*DE' SUBROUTINE
4986   14FA             ; --------------------------
4987   14FA             
4988   14FA             ; GET-HL*DE
4989   14FA             sub_14fah:
4990   14FA CD 23 0F        call sub_0f23h
4991   14FD C8              ret z
4992   14FE C5              push bc
4993   14FF 06 10           ld b,010h
4994   1501 7C              ld a,h
4995   1502 4D              ld c,l
4996   1503 21 00 00        ld hl,l0000h
4997   1506             
4998   1506             ; HL-LOOP
4999   1506             l1506h:
5000   1506 29              add hl,hl
5001   1507 38 06           jr c,l150fh
5002   1509 CB 11           rl c
5003   150B 17              rla
5004   150C 30 04           jr nc,l1512h
5005   150E 19              add hl,de
5006   150F             
5007   150F             ; HL-END
5008   150F             l150fh:
5009   150F DA AE 10        jp c,l10aeh
5010   1512             
5011   1512             ; HL-AGAIN
5012   1512             l1512h:
5013   1512 10 F2           djnz l1506h
5014   1514 C1              pop bc
5015   1515 C9              ret
5016   1516             
5017   1516             ; --------------------
5018   1516             ; THE 'LET' SUBROUTINE
5019   1516             ; --------------------
5020   1516             
5021   1516             ; LET
5022   1516             l1516h:
5023   1516 2A 12 40        ld hl,(04012h)
5024   1519 FD CB 2D 4E     bit 1,(iy+02dh)
5025   151D 28 44           jr z,l1563h
5026   151F 01 05 00        ld bc,00005h
5027   1522             
5028   1522             ; L-EACH-CH
5029   1522             l1522h:
5030   1522 03              inc bc
5031   1523             
5032   1523             ; L-NO-SP
5033   1523             l1523h:
5034   1523 23              inc hl
5035   1524 7E              ld a,(hl)
5036   1525 A7              and a
5037   1526 28 FB           jr z,l1523h
5038   1528 CD CA 16        call sub_16cah
5039   152B 38 F5           jr c,l1522h
5040   152D FE 0D           cp 00dh
5041   152F CA BD 15        jp z,l15bdh
5042   1532 F7              rst 30h
5043   1533 D5              push de
5044   1534 2A 12 40        ld hl,(04012h)
5045   1537 1B              dec de
5046   1538 79              ld a,c
5047   1539 D6 06           sub 006h
5048   153B 47              ld b,a
5049   153C 3E 40           ld a,040h
5050   153E 28 0E           jr z,l154eh
5051   1540             
5052   1540             ; L-CHAR
5053   1540             l1540h:
5054   1540 23              inc hl
5055   1541 7E              ld a,(hl)
5056   1542 A7              and a
5057   1543 28 FB           jr z,l1540h
5058   1545 13              inc de
5059   1546 12              ld (de),a
5060   1547 10 F7           djnz l1540h
5061   1549 F6 80           or 080h
5062   154B 12              ld (de),a
5063   154C 3E 80           ld a,080h
5064   154E             
5065   154E             ; L-SINGLE
5066   154E             l154eh:
5067   154E 2A 12 40        ld hl,(04012h)
5068   1551 AE              xor (hl)
5069   1552 E1              pop hl
5070   1553 CD DC 15        call sub_15dch
5071   1556             
5072   1556             ; L-NUMERIC
5073   1556             l1556h:
5074   1556 E5              push hl
5075   1557 EF              rst 28h
5076   1558 02              ld (bc),a
5077   1559 34              inc (hl)
5078   155A E1              pop hl
5079   155B 01 05 00        ld bc,00005h
5080   155E A7              and a
5081   155F ED 42           sbc hl,bc
5082   1561 18 40           jr l15a3h
5083   1563             
5084   1563             ; L-EXISTS
5085   1563             l1563h:
5086   1563 FD CB 01 76     bit 6,(iy+001h)         ; check FLAGS - 0 = string or 1 = numeric result
5087   1567 28 06           jr z,l156fh
5088   1569 11 06 00        ld de,l0006h
5089   156C 19              add hl,de
5090   156D 18 E7           jr l1556h
5091   156F             
5092   156F             ; L-DELETE$
5093   156F             l156fh:
5094   156F 2A 12 40        ld hl,(04012h)
5095   1572 ED 4B 2E 40     ld bc,(0402eh)
5096   1576 FD CB 2D 46     bit 0,(iy+02dh)
5097   157A 20 30           jr nz,l15ach
5098   157C 78              ld a,b
5099   157D B1              or c
5100   157E C8              ret z
5101   157F E5              push hl
5102   1580 F7              rst 30h
5103   1581 D5              push de
5104   1582 C5              push bc
5105   1583 54              ld d,h
5106   1584 5D              ld e,l
5107   1585 23              inc hl
5108   1586 36 00           ld (hl),000h
5109   1588 ED B8           lddr
5110   158A E5              push hl
5111   158B CD ED 15        call sub_15edh          ; routine STK-FETCH
5112   158E E1              pop hl
5113   158F E3              ex (sp),hl
5114   1590 A7              and a
5115   1591 ED 42           sbc hl,bc
5116   1593 09              add hl,bc
5117   1594 30 02           jr nc,l1598h
5118   1596 44              ld b,h
5119   1597 4D              ld c,l
5120   1598             
5121   1598             ; L-LENGTH
5122   1598             l1598h:
5123   1598 E3              ex (sp),hl
5124   1599 EB              ex de,hl
5125   159A 78              ld a,b
5126   159B B1              or c
5127   159C 28 02           jr z,l15a0h
5128   159E ED B0           ldir
5129   15A0             
5130   15A0             ; L-IN-W/S
5131   15A0             l15a0h:
5132   15A0 C1              pop bc
5133   15A1 D1              pop de
5134   15A2 E1              pop hl
5135   15A3             
5136   15A3             ; L-ENTER
5137   15A3             l15a3h:
5138   15A3 EB              ex de,hl
5139   15A4 78              ld a,b
5140   15A5 B1              or c
5141   15A6 C8              ret z
5142   15A7 D5              push de
5143   15A8 ED B0           ldir
5144   15AA E1              pop hl
5145   15AB C9              ret
5146   15AC             
5147   15AC             ; L-ADD$
5148   15AC             l15ach:
5149   15AC 2B              dec hl
5150   15AD 2B              dec hl
5151   15AE 2B              dec hl
5152   15AF 7E              ld a,(hl)
5153   15B0 E5              push hl
5154   15B1 C5              push bc
5155   15B2 CD C3 15        call sub_15c3h
5156   15B5 C1              pop bc
5157   15B6 E1              pop hl
5158   15B7 03              inc bc
5159   15B8 03              inc bc
5160   15B9 03              inc bc
5161   15BA C3 F5 0B        jp sub_0bf5h            ; routine RECLAIM-2
5162   15BD             
5163   15BD             ; L-NEWS
5164   15BD             l15bdh:
5165   15BD 3E 60           ld a,060h
5166   15BF 2A 12 40        ld hl,(04012h)
5167   15C2 AE              xor (hl)
5168   15C3             
5169   15C3             ; L-STRING
5170   15C3             sub_15c3h:
5171   15C3 F5              push af
5172   15C4 CD ED 15        call sub_15edh          ; routine STK-FETCH
5173   15C7 EB              ex de,hl
5174   15C8 09              add hl,bc
5175   15C9 E5              push hl
5176   15CA 03              inc bc
5177   15CB 03              inc bc
5178   15CC 03              inc bc
5179   15CD F7              rst 30h
5180   15CE EB              ex de,hl
5181   15CF E1              pop hl
5182   15D0 0B              dec bc
5183   15D1 0B              dec bc
5184   15D2 C5              push bc
5185   15D3 ED B8           lddr
5186   15D5 EB              ex de,hl
5187   15D6 C1              pop bc
5188   15D7 0B              dec bc
5189   15D8 70              ld (hl),b
5190   15D9 2B              dec hl
5191   15DA 71              ld (hl),c
5192   15DB F1              pop af
5193   15DC             
5194   15DC             ; L-FIRST
5195   15DC             sub_15dch:
5196   15DC F5              push af
5197   15DD CD BF 16        call sub_16bfh
5198   15E0 F1              pop af
5199   15E1 2B              dec hl
5200   15E2 77              ld (hl),a
5201   15E3 2A 1A 40        ld hl,(0401ah)
5202   15E6 22 14 40        ld (04014h),hl
5203   15E9 2B              dec hl
5204   15EA 36 80           ld (hl),080h
5205   15EC C9              ret
5206   15ED             
5207   15ED             ; --------------------------
5208   15ED             ; THE 'STK-FETCH' SUBROUTINE
5209   15ED             ; --------------------------
5210   15ED             ; For a floating-point number the exponent is in A and the mantissa
5211   15ED             ; is the thirty-two bits EDCB.
5212   15ED             ; For strings, the start of the string is in DE and the length in BC.
5213   15ED             ; A is unused.
5214   15ED             
5215   15ED             ; STK-FETCH
5216   15ED             sub_15edh:
5217   15ED 2A 1C 40        ld hl,(0401ch)
5218   15F0 2B              dec hl
5219   15F1 46              ld b,(hl)
5220   15F2 2B              dec hl
5221   15F3 4E              ld c,(hl)
5222   15F4 2B              dec hl
5223   15F5 56              ld d,(hl)
5224   15F6 2B              dec hl
5225   15F7 5E              ld e,(hl)
5226   15F8 2B              dec hl
5227   15F9 7E              ld a,(hl)
5228   15FA 22 1C 40        ld (0401ch),hl
5229   15FD C9              ret
5230   15FE             
5231   15FE             ; -------------------------
5232   15FE             ; THE 'DIM' COMMAND ROUTINE
5233   15FE             ; -------------------------
5234   15FE             
5235   15FE             ; DIM
5236   15FE             sub_15feh
5237   15FE CD 11 13        call sub_1311h          ; LOOK-VARS
5238   1601             
5239   1601             ; D-RPORT-C
5240   1601             l1601h:
5241   1601 C2 17 0F        jp nz,l0f17h            ; to REPORT-C - Invalid Expression
5242   1604 CD 23 0F        call sub_0f23h
5243   1607 20 08           jr nz,l1611h
5244   1609 CB B1           res 6,c
5245   160B CD 9C 13        call sub_139ch
5246   160E CD 9A 0E        call sub_0e9ah          ; routine CHECK-END
5247   1611             
5248   1611             ; D-RUN
5249   1611             l1611h:
5250   1611 38 08           jr c,l161bh
5251   1613 C5              push bc
5252   1614 CD 84 0B        call sub_0b84h
5253   1617 CD F5 0B        call sub_0bf5h          ; routine RECLAIM-2
5254   161A C1              pop bc
5255   161B             
5256   161B             ; D-LETTER
5257   161B             l161bh:
5258   161B CB F9           set 7,c
5259   161D 06 00           ld b,000h
5260   161F C5              push bc
5261   1620 21 01 00        ld hl,l0000h+1
5262   1623 CB 71           bit 6,c
5263   1625 20 02           jr nz,l1629h
5264   1627 2E 05           ld l,005h
5265   1629             
5266   1629             ; D-SIZE
5267   1629             l1629h:
5268   1629 EB              ex de,hl
5269   162A             
5270   162A             ; D-NO-LOOP
5271   162A             l162ah:
5272   162A E7              rst 20h
5273   162B 26 40           ld h,040h
5274   162D CD D2 14        call sub_14d2h
5275   1630 DA 26 14        jp c,l1426h
5276   1633 E1              pop hl
5277   1634 C5              push bc
5278   1635 24              inc h
5279   1636 E5              push hl
5280   1637 60              ld h,b
5281   1638 69              ld l,c
5282   1639 CD FA 14        call sub_14fah
5283   163C EB              ex de,hl
5284   163D DF              rst 18h
5285   163E FE 1A           cp 01ah
5286   1640 28 E8           jr z,l162ah
5287   1642 FE 11           cp 011h
5288   1644 20 BB           jr nz,l1601h
5289   1646 E7              rst 20h
5290   1647 C1              pop bc
5291   1648 79              ld a,c
5292   1649 68              ld l,b
5293   164A 26 00           ld h,000h
5294   164C 23              inc hl
5295   164D 23              inc hl
5296   164E 29              add hl,hl
5297   164F 19              add hl,de
5298   1650 DA AE 10        jp c,l10aeh
5299   1653 D5              push de
5300   1654 C5              push bc
5301   1655 E5              push hl
5302   1656 44              ld b,h
5303   1657 4D              ld c,l
5304   1658 2A 14 40        ld hl,(04014h)
5305   165B 2B              dec hl
5306   165C CD 30 0B        call sub_0b30h
5307   165F 23              inc hl
5308   1660 77              ld (hl),a
5309   1661 C1              pop bc
5310   1662 0B              dec bc
5311   1663 0B              dec bc
5312   1664 0B              dec bc
5313   1665 23              inc hl
5314   1666 71              ld (hl),c
5315   1667 23              inc hl
5316   1668 70              ld (hl),b
5317   1669 F1              pop af
5318   166A 23              inc hl
5319   166B 77              ld (hl),a
5320   166C 62              ld h,d
5321   166D 6B              ld l,e
5322   166E 1B              dec de
5323   166F 36 00           ld (hl),000h
5324   1671 C1              pop bc
5325   1672 ED B8           lddr
5326   1674             
5327   1674             ; DIM-SIZES
5328   1674             l1674h:
5329   1674 C1              pop bc
5330   1675 70              ld (hl),b
5331   1676 2B              dec hl
5332   1677 71              ld (hl),c
5333   1678 2B              dec hl
5334   1679 3D              dec a
5335   167A 20 F8           jr nz,l1674h
5336   167C C9              ret
5337   167D             
5338   167D             ; RESERVE
5339   167D             l167dh:
5340   167D 2A 1A 40        ld hl,(0401ah)          ; address STKBOT
5341   1680 2B              dec hl
5342   1681 CD 30 0B        call sub_0b30h          ; routine MAKE-ROOM
5343   1684 23              inc hl
5344   1685 23              inc hl
5345   1686 C1              pop bc
5346   1687 ED 43 14 40     ld (04014h),bc
5347   168B C1              pop bc
5348   168C EB              ex de,hl
5349   168D 23              inc hl
5350   168E C9              ret
5351   168F             
5352   168F             
5353   168F             ; -------------------------
5354   168F             ; THE 'RUN' COMMAND ROUTINE
5355   168F             ; -------------------------
5356   168F             
5357   168F             ; RUN
5358   168F             sub_168fh:
5359   168F CD 68 10        call sub_1068h          ; GOTO with implied 0
5360   1692             
5361   1692             ; ---------------------------
5362   1692             ; THE 'CLEAR' COMMAND ROUTINE
5363   1692             ; ---------------------------
5364   1692             
5365   1692             ; CLEAR
5366   1692             sub_1692h:
5367   1692 2A 10 40        ld hl,(04010h)
5368   1695 36 80           ld (hl),080h
5369   1697 23              inc hl
5370   1698 22 14 40        ld (04014h),hl
5371   169B             
5372   169B             ; X-TEMP
5373   169B             sub_169bh:
5374   169B 2A 14 40        ld hl,(04014h)          ; save E_LINE_lo
5375   169E             
5376   169E             ; set STK-B
5377   169E             sub_169eh:
5378   169E 22 1A 40        ld (0401ah),hl          ; save STKBOT
5379   16A1             
5380   16A1             ; set STK-E
5381   16A1             l16a1h:
5382   16A1 22 1C 40        ld (0401ch),hl          ; save STKEND
5383   16A4 C9              ret
5384   16A5             
5385   16A5             ; -----------------------
5386   16A5             ; THE 'CURSOR-IN' ROUTINE
5387   16A5             ; -----------------------
5388   16A5             
5389   16A5             ; CURSOR-IN
5390   16A5             sub_16a5h:
5391   16A5 2A 14 40        ld hl,(04014h)
5392   16A8 36 7F           ld (hl),07fh
5393   16AA 23              inc hl
5394   16AB 36 76           ld (hl),076h
5395   16AD 23              inc hl
5396   16AE FD 36 22 02     ld (iy+022h),002h
5397   16B2 18 EA           jr sub_169eh
5398   16B4             
5399   16B4             ; ------------------------
5400   16B4             ; THE 'SET-MIN' SUBROUTINE
5401   16B4             ; ------------------------
5402   16B4             
5403   16B4             ; SET-MIN
5404   16B4             l16b4h:
5405   16B4 21 5D 40        ld hl,0405dh
5406   16B7 22 1F 40        ld (0401fh),hl
5407   16BA 2A 1A 40        ld hl,(0401ah)
5408   16BD 18 E2           jr l16a1h
5409   16BF             
5410   16BF             ; ------------------------------------
5411   16BF             ; THE 'RECLAIM THE END-MARKER' ROUTINE
5412   16BF             ; ------------------------------------
5413   16BF             
5414   16BF             ; REC-V80
5415   16BF             sub_16bfh:
5416   16BF ED 5B 14 40     ld de,(04014h)
5417   16C3 C3 F2 0B        jp sub_0bf2h
5418   16C6             
5419   16C6             ; ----------------------
5420   16C6             ; THE 'ALPHA' SUBROUTINE
5421   16C6             ; ----------------------
5422   16C6             
5423   16C6             ; ALPHA
5424   16C6             sub_16c6h:
5425   16C6 FE 26           cp 026h
5426   16C8 18 02           jr l16cch
5427   16CA             
5428   16CA             ; -------------------------
5429   16CA             ; THE 'ALPHANUM' SUBROUTINE
5430   16CA             ; -------------------------
5431   16CA             
5432   16CA             ; ALPHANUM
5433   16CA             sub_16cah:
5434   16CA FE 1C           cp 01ch
5435   16CC             
5436   16CC             ; ALPHA-2
5437   16CC             l16cch:
5438   16CC 3F              ccf
5439   16CD D0              ret nc
5440   16CE FE 40           cp 040h
5441   16D0 C9              ret
5442   16D1             
5443   16D1             ; ------------------------------------------
5444   16D1             ; THE 'DECIMAL TO FLOATING POINT' SUBROUTINE
5445   16D1             ; ------------------------------------------
5446   16D1             
5447   16D1             ; DEC-TO-FP
5448   16D1             sub_16d1h:
5449   16D1 CD 40 17        call sub_1740h
5450   16D4 FE 1B           cp 01bh
5451   16D6 20 15           jr nz,l16edh
5452   16D8 EF              rst 28h                 ; FP-CALC
5453   16D9 A1              .byte    $A1            ;;stk-one
5454   16DA C0              .byte    $C0            ;;st-mem-0
5455   16DB 02              .byte    $02            ;;delete
5456   16DC 34              .byte    $34            ;;end-calc
5457   16DD             
5458   16DD             ; NXT-DGT-1
5459   16DD             l16ddh:
5460   16DD E7              rst 20h
5461   16DE CD 0C 17        call sub_170ch
5462   16E1 38 0A           jr c,l16edh
5463   16E3 EF              rst 28h                 ; FP-CALC
5464   16E4 E0              .byte    $E0            ;;get-mem-0
5465   16E5 A4              .byte    $A4            ;;stk-ten
5466   16E6 05              .byte    $05            ;;division
5467   16E7 C0              .byte    $C0            ;;st-mem-0
5468   16E8 04              .byte    $04            ;;multiply
5469   16E9 0F              .byte    $0F            ;;addition
5470   16EA 34              .byte    $34            ;;end-calc
5471   16EB 18 F0           jr l16ddh
5472   16ED             
5473   16ED             ; E-FORMAT
5474   16ED             l16edh:
5475   16ED FE 2A           cp 02ah
5476   16EF C0              ret nz
5477   16F0 FD 36 5D FF     ld (iy+05dh),0ffh
5478   16F4 E7              rst 20h
5479   16F5 FE 15           cp 015h
5480   16F7 28 07           jr z,l1700h
5481   16F9 FE 16           cp 016h
5482   16FB 20 04           jr nz,l1701h
5483   16FD FD 34 5D        inc (iy+05dh)
5484   1700             
5485   1700             ; SIGN-DONE
5486   1700             l1700h:
5487   1700 E7              rst 20h
5488   1701             
5489   1701             ; ST-E-PART
5490   1701             l1701h:
5491   1701 CD 40 17        call sub_1740h
5492   1704 EF              rst 28h                 ; FP-CALC              m, e.
5493   1705 E0              .byte    $E0            ;;get-mem-0             m, e, (1/0) TRUE/FALSE
5494   1706 00              .byte    $00            ;;jump-true
5495   1707 02              .byte    $02            ;;to L1511, E-POSTVE
5496   1708 18              .byte    $18            ;;neg                   m, -e
5497   1709             ;; E-POSTVE
5498   1709 38              .byte    $38            ;;e-to-fp               x.
5499   170A 34              .byte    $34            ;;end-calc              x.
5500   170B C9              ret
5501   170C             
5502   170C             ; --------------------------
5503   170C             ; THE 'STK-DIGIT' SUBROUTINE
5504   170C             ; --------------------------
5505   170C             
5506   170C             ; STK-DIGIT
5507   170C             sub_170ch:
5508   170C FE 1C           cp 01ch
5509   170E D8              ret c
5510   170F FE 26           cp 026h
5511   1711 3F              ccf
5512   1712 D8              ret c
5513   1713 D6 1C           sub 01ch
5514   1715             
5515   1715             ; ------------------------
5516   1715             ; THE 'STACK-A' SUBROUTINE
5517   1715             ; ------------------------
5518   1715             
5519   1715             ; STACK-A
5520   1715             sub_1715h:
5521   1715 4F              ld c,a
5522   1716 06 00           ld b,000h
5523   1718             
5524   1718             ; -------------------------
5525   1718             ; THE 'STACK-BC' SUBROUTINE
5526   1718             ; -------------------------
5527   1718             
5528   1718             ; STACK-BC
5529   1718             sub_1718h:
5530   1718 FD 21 00 40     ld iy,04000h
5531   171C C5              push bc
5532   171D EF              rst 28h                 ; FP-CALC
5533   171E A0              .byte    $A0            ;;stk-zero                      0.
5534   171F 34              .byte    $34            ;;end-calc
5535   1720 C1              pop bc
5536   1721 36 91           ld (hl),091h
5537   1723 78              ld a,b
5538   1724 A7              and a
5539   1725 20 07           jr nz,l172eh
5540   1727 77              ld (hl),a
5541   1728 B1              or c
5542   1729 C8              ret z
5543   172A 41              ld b,c
5544   172B 4E              ld c,(hl)
5545   172C 36 89           ld (hl),089h
5546   172E             
5547   172E             ; STK-BC-2
5548   172E             l172eh:
5549   172E 35              dec (hl)
5550   172F CB 21           sla c
5551   1731 CB 10           rl b
5552   1733 30 F9           jr nc,l172eh
5553   1735 CB 38           srl b
5554   1737 CB 19           rr c
5555   1739 23              inc hl
5556   173A 70              ld (hl),b
5557   173B 23              inc hl
5558   173C 71              ld (hl),c
5559   173D 2B              dec hl
5560   173E 2B              dec hl
5561   173F C9              ret
5562   1740             
5563   1740             ; ------------------------------------------
5564   1740             ; THE 'INTEGER TO FLOATING POINT' SUBROUTINE
5565   1740             ; ------------------------------------------
5566   1740             
5567   1740             ; INT-TO-FP
5568   1740             sub_1740h:
5569   1740 F5              push af
5570   1741 EF              rst 28h                 ; FP-CALC
5571   1742 A0              .byte    $A0            ;;stk-zero
5572   1743 34              .byte    $34            ;;end-calc
5573   1744 F1              pop af
5574   1745             
5575   1745             ; NXT-DGT-2
5576   1745             l1745h:
5577   1745 CD 0C 17        call sub_170ch
5578   1748 D8              ret c
5579   1749 EF              rst 28h                 ; FP-CALC
5580   174A 01              .byte    $01            ;;exchange
5581   174B A4              .byte    $A4            ;;stk-ten
5582   174C 04              .byte    $04            ;;multiply
5583   174D 0F              .byte    $0F            ;;addition
5584   174E 34              .byte    $34            ;;end-calc
5585   174F E7              rst 20h
5586   1750 18 F3           jr l1745h
5587   1752             
5588   1752             ; ------------------------------------------------
5589   1752             ; THE 'E-FORMAT TO FLOATING POINT' SUBROUTINE (38)
5590   1752             ; ------------------------------------------------
5591   1752             sub_1752h:
5592   1752 EF              rst 28h                 ; FP-CALC              x, m.
5593   1753 2D              .byte    $2D            ;;duplicate             x, m, m.
5594   1754 32              .byte    $32            ;;less-0                x, m, (1/0).
5595   1755 C0              .byte    $C0            ;;st-mem-0              x, m, (1/0).
5596   1756 02              .byte    $02            ;;delete                x, m.
5597   1757 27              .byte    $27            ;;abs                   x, +m.
5598   1758             
5599   1758             ;; E-LOOP
5600   1758 A1              .byte    $A1            ;;stk-one               x, m,1.
5601   1759 03              .byte    $03            ;;subtract              x, m-1.
5602   175A 2D              .byte    $2D            ;;duplicate             x, m-1,m-1.
5603   175B 32              .byte    $32            ;;less-0                x, m-1, (1/0).
5604   175C 00              .byte    $00            ;;jump-true             x, m-1.
5605   175D 22              .byte    $22            ;;to L1587, E-END       x, m-1.
5606   175E             
5607   175E 2D              .byte    $2D            ;;duplicate             x, m-1, m-1.
5608   175F 30              .byte    $30            ;;stk-data
5609   1760 33              .byte    $33            ;;Exponent: $83, Bytes: 1
5610   1761             
5611   1761 40              .byte    $40            ;;(+00,+00,+00)         x, m-1, m-1, 6.
5612   1762 03              .byte    $03            ;;subtract              x, m-1, m-7.
5613   1763 2D              .byte    $2D            ;;duplicate             x, m-1, m-7, m-7.
5614   1764 32              .byte    $32            ;;less-0                x, m-1, m-7, (1/0).
5615   1765 00              .byte    $00            ;;jump-true             x, m-1, m-7.
5616   1766 0C              .byte    $0C            ;;to L157A, E-LOW
5617   1767             
5618   1767             ; but if exponent m is higher than 7 do a bigger chunk.
5619   1767             ; multiplying (or dividing if negative) by 10 million - 1e7.
5620   1767             
5621   1767 01              .byte    $01            ;;exchange              x, m-7, m-1.
5622   1768 02              .byte    $02            ;;delete                x, m-7.
5623   1769 01              .byte    $01            ;;exchange              m-7, x.
5624   176A 30              .byte    $30            ;;stk-data
5625   176B 80              .byte    $80            ;;Bytes: 3
5626   176C 48              .byte    $48            ;;Exponent $98
5627   176D 18 96 80        .byte    $18,$96,$80    ;;(+00)                 m-7, x, 10,000,000 (=f)
5628   1770 2F              .byte    $2F            ;;jump
5629   1771 04              .byte    $04            ;;to L157D, E-CHUNK
5630   1772             
5631   1772             ; ---
5632   1772             
5633   1772             ;; E-LOW
5634   1772 02              .byte    $02            ;;delete                x, m-1.
5635   1773 01              .byte    $01            ;;exchange              m-1, x.
5636   1774 A4              .byte    $A4            ;;stk-ten               m-1, x, 10 (=f).
5637   1775             
5638   1775             ;; E-CHUNK
5639   1775 E0              .byte    $E0            ;;get-mem-0             m-1, x, f, (1/0)
5640   1776 00              .byte    $00            ;;jump-true             m-1, x, f
5641   1777 04              .byte    $04            ;;to L1583, E-DIVSN
5642   1778             
5643   1778 04              .byte    $04            ;;multiply              m-1, x*f.
5644   1779 2F              .byte    $2F            ;;jump
5645   177A 02              .byte    $02            ;;to L1584, E-SWAP
5646   177B             
5647   177B             ; ---
5648   177B             
5649   177B             ;; E-DIVSN
5650   177B 05              .byte    $05            ;;division              m-1, x/f (= new x).
5651   177C             
5652   177C             ;; E-SWAP
5653   177C 01              .byte    $01            ;;exchange              x, m-1 (= new m).
5654   177D 2F              .byte    $2F            ;;jump                  x, m.
5655   177E DA              .byte    $DA            ;;to L1560, E-LOOP
5656   177F             
5657   177F             ; ---
5658   177F             
5659   177F             ;; E-END
5660   177F 02              .byte    $02            ;;delete                x. (-1)
5661   1780 34              .byte    $34            ;;end-calc              x.
5662   1781             
5663   1781 C9              ret
5664   1782             
5665   1782             ; -------------------------------------
5666   1782             ; THE 'FLOATING-POINT TO BC' SUBROUTINE
5667   1782             ; -------------------------------------
5668   1782             
5669   1782             ; FP-TO-BC
5670   1782             sub_1782h:
5671   1782 CD ED 15        call sub_15edh          ; routine STK-FETCH
5672   1785 A7              and a
5673   1786 20 05           jr nz,l178dh
5674   1788 47              ld b,a
5675   1789 4F              ld c,a
5676   178A F5              push af
5677   178B 18 31           jr l17beh
5678   178D             
5679   178D             ; FPBC-NZRO
5680   178D             l178dh:
5681   178D 43              ld b,e
5682   178E 59              ld e,c
5683   178F 4A              ld c,d
5684   1790 D6 91           sub 091h
5685   1792 3F              ccf
5686   1793 CB 78           bit 7,b
5687   1795 F5              push af
5688   1796 CB F8           set 7,b
5689   1798 38 24           jr c,l17beh
5690   179A 3C              inc a
5691   179B ED 44           neg
5692   179D FE 08           cp 008h
5693   179F 38 06           jr c,l17a7h
5694   17A1 59              ld e,c
5695   17A2 48              ld c,b
5696   17A3 06 00           ld b,000h
5697   17A5 D6 08           sub 008h
5698   17A7             
5699   17A7             ; BIG-INT
5700   17A7             l17a7h:
5701   17A7 A7              and a
5702   17A8 57              ld d,a
5703   17A9 7B              ld a,e
5704   17AA 07              rlca
5705   17AB 28 07           jr z,l17b4h
5706   17AD             
5707   17AD             ; FPBC-NORM
5708   17AD             l17adh:
5709   17AD CB 38           srl b
5710   17AF CB 19           rr c
5711   17B1 15              dec d
5712   17B2 20 F9           jr nz,l17adh
5713   17B4             
5714   17B4             ; EXP-ZERO
5715   17B4             l17b4h:
5716   17B4 30 08           jr nc,l17beh
5717   17B6 03              inc bc
5718   17B7 78              ld a,b
5719   17B8 B1              or c
5720   17B9 20 03           jr nz,l17beh
5721   17BB F1              pop af
5722   17BC 37              scf
5723   17BD F5              push af
5724   17BE             
5725   17BE             ; FPBC-END
5726   17BE             l17beh:
5727   17BE C5              push bc
5728   17BF EF              rst 28h                 ; FP-CALC
5729   17C0 34              .byte    $34            ;;end-calc
5730   17C1 C1              pop bc
5731   17C2 F1              pop af
5732   17C3 79              ld a,c
5733   17C4 C9              ret
5734   17C5             
5735   17C5             ; ------------------------------------
5736   17C5             ; THE 'FLOATING-POINT TO A' SUBROUTINE
5737   17C5             ; ------------------------------------
5738   17C5             
5739   17C5             ; FP-TO-A
5740   17C5             sub_17c5h:
5741   17C5 CD 82 17        call sub_1782h
5742   17C8 D8              ret c
5743   17C9 F5              push af
5744   17CA 05              dec b
5745   17CB 04              inc b
5746   17CC 28 03           jr z,l17d1h
5747   17CE F1              pop af
5748   17CF 37              scf
5749   17D0 C9              ret
5750   17D1             
5751   17D1             ; FP-A-END
5752   17D1             l17d1h:
5753   17D1 F1              pop af
5754   17D2 C9              ret
5755   17D3             
5756   17D3             ; ----------------------------------------------
5757   17D3             ; THE 'PRINT A FLOATING-POINT NUMBER' SUBROUTINE
5758   17D3             ; ----------------------------------------------
5759   17D3             
5760   17D3             ; PRINT-FP
5761   17D3             l17d3h:
5762   17D3 EF              rst 28h                 ; FP-CALC              x.
5763   17D4 2D              .byte    $2D            ;;duplicate             x, x.
5764   17D5 32              .byte    $32            ;;less-0                x, (1/0).
5765   17D6 00              .byte    $00            ;;jump-true
5766   17D7 0B              .byte    $0B            ;;to L15EA, PF-NGTVE    x.
5767   17D8             
5768   17D8 2D              .byte    $2D            ;;duplicate             x, x
5769   17D9 33              .byte    $33            ;;greater-0             x, (1/0).
5770   17DA 00              .byte    $00            ;;jump-true
5771   17DB 0D              .byte    $0D            ;;to L15F0, PF-POSTVE   x.
5772   17DC             
5773   17DC 02              .byte    $02            ;;delete                .
5774   17DD 34              .byte    $34            ;;end-calc              .
5775   17DE 3E 1C           ld a,01ch
5776   17E0 D7              rst 10h
5777   17E1 C9              ret
5778   17E2             
5779   17E2             ; PF-NEGTVE
5780   17E2 27              .byte    $27            ; abs                   +x.
5781   17E3 34              .byte    $34            ;;end-calc              x.
5782   17E4 3E 16           ld a,016h
5783   17E6 D7              rst 10h
5784   17E7 EF              rst 28h                 ; FP-CALC              x.
5785   17E8             
5786   17E8             ; PF-POSTVE
5787   17E8 34              .byte    $34            ;;end-calc              x.
5788   17E9 7E              ld a,(hl)
5789   17EA CD 15 17        call sub_1715h
5790   17ED EF              rst 28h                 ; FP-CALC              x, e.
5791   17EE 30              .byte    $30            ;;stk-data
5792   17EF 78              .byte    $78            ;;Exponent: $88, Bytes: 2
5793   17F0 00 80           .byte    $00,$80        ;;(+00,+00)             x, e, 128.5.
5794   17F2 03              .byte    $03            ;;subtract              x, e -.5.
5795   17F3 30              .byte    $30            ;;stk-data
5796   17F4 EF              .byte    $EF            ;;Exponent: $7F, Bytes: 4
5797   17F5 1A 20 9A 85     .byte    $1A,$20,$9A,$85                     ; .30103 (log10 2)
5798   17F9 04              .byte    $04            ;;multiply              x,
5799   17FA 24              .byte    $24            ;;int
5800   17FB C1              .byte    $C1            ;;st-mem-1              x, n.
5801   17FC             
5802   17FC             
5803   17FC 30              .byte    $30            ;;stk-data
5804   17FD 34              .byte    $34            ;;Exponent: $84, Bytes: 1
5805   17FE 00              .byte    $00            ;;(+00,+00,+00)         x, n, 8.
5806   17FF             
5807   17FF 03              .byte    $03            ;;subtract              x, n-8.
5808   1800 18              .byte    $18            ;;neg                   x, 8-n.
5809   1801 38              .byte    $38            ;;e-to-fp               x * (10^n)
5810   1802             
5811   1802 A2              .byte    $A2            ;;stk-half
5812   1803 0F              .byte    $0F            ;;addition
5813   1804 24              .byte    $24            ;;int                   i.
5814   1805 34              .byte    $34            ;;end-calc
5815   1806 21 6B 40        ld hl,0406bh
5816   1809 36 90           ld (hl),090h
5817   180B 06 0A           ld b,00ah
5818   180D             
5819   180D             ; PF-LOOP
5820   180D             l180dh:
5821   180D 23              inc hl
5822   180E E5              push hl
5823   180F C5              push bc
5824   1810 EF              rst 28h                 ; FP-CALC              i.
5825   1811 A4              .byte    $A4            ;;stk-ten               i, 10.
5826   1812 2E              .byte    $2E            ;;n-mod-m               i mod 10, i/10
5827   1813 01              .byte    $01            ;;exchange              i/10, remainder.
5828   1814 34              .byte    $34            ;;end-calc
5829   1815 CD C5 17        call sub_17c5h
5830   1818 F6 90           or 090h
5831   181A C1              pop bc
5832   181B E1              pop hl
5833   181C 77              ld (hl),a
5834   181D 10 EE           djnz l180dh
5835   181F 23              inc hl
5836   1820 01 08 00        ld bc,l0008h
5837   1823 E5              push hl
5838   1824             
5839   1824             ; PF-NULL
5840   1824             l1824h:
5841   1824 2B              dec hl
5842   1825 7E              ld a,(hl)
5843   1826 FE 90           cp 090h
5844   1828 28 FA           jr z,l1824h
5845   182A ED 42           sbc hl,bc
5846   182C E5              push hl
5847   182D 7E              ld a,(hl)
5848   182E C6 6B           add a,06bh
5849   1830 F5              push af
5850   1831             
5851   1831             ; PF-RND-LP
5852   1831             l1831h:
5853   1831 F1              pop af
5854   1832 23              inc hl
5855   1833 7E              ld a,(hl)
5856   1834 CE 00           adc a,000h
5857   1836 27              daa
5858   1837 F5              push af
5859   1838 E6 0F           and 00fh
5860   183A 77              ld (hl),a
5861   183B CB FE           set 7,(hl)
5862   183D 28 F2           jr z,l1831h
5863   183F F1              pop af
5864   1840 E1              pop hl
5865   1841 06 06           ld b,006h
5866   1843             
5867   1843             ; PF-ZERO-6
5868   1843             l1843h:
5869   1843 36 80           ld (hl),080h
5870   1845 2B              dec hl
5871   1846 10 FB           djnz l1843h
5872   1848 EF              rst 28h
5873   1849 02              ld (bc),a
5874   184A E1              pop hl
5875   184B 34              inc (hl)
5876   184C CD C5 17        call sub_17c5h
5877   184F 28 02           jr z,l1853h
5878   1851 ED 44           neg
5879   1853             
5880   1853             ; PF-POS
5881   1853             l1853h:
5882   1853 5F              ld e,a
5883   1854 1C              inc e
5884   1855 1C              inc e
5885   1856 E1              pop hl
5886   1857             
5887   1857             ; GET-FIRST
5888   1857             l1857h:
5889   1857 2B              dec hl
5890   1858 1D              dec e
5891   1859 7E              ld a,(hl)
5892   185A E6 0F           and 00fh
5893   185C 28 F9           jr z,l1857h
5894   185E 7B              ld a,e
5895   185F D6 05           sub 005h
5896   1861 FE 08           cp 008h
5897   1863 F2 7A 18        jp p,l187ah
5898   1866 FE F6           cp 0f6h
5899   1868 FA 7A 18        jp m,l187ah
5900   186B C6 06           add a,006h
5901   186D 28 47           jr z,l18b6h
5902   186F FA A9 18        jp m,l18a9h
5903   1872 47              ld b,a
5904   1873             
5905   1873             ; PF-NIB-LP
5906   1873             l1873h:
5907   1873 CD C7 18        call sub_18c7h
5908   1876 10 FB           djnz l1873h
5909   1878 18 3F           jr l18b9h
5910   187A             
5911   187A             ; PF-E-FMT
5912   187A             l187ah:
5913   187A 43              ld b,e
5914   187B CD C7 18        call sub_18c7h
5915   187E CD B9 18        call l18b9h
5916   1881 3E 2A           ld a,02ah
5917   1883 D7              rst 10h
5918   1884 78              ld a,b
5919   1885 A7              and a
5920   1886 F2 90 18        jp p,l1890h
5921   1889 ED 44           neg
5922   188B 47              ld b,a
5923   188C 3E 16           ld a,016h
5924   188E 18 02           jr l1892h
5925   1890             
5926   1890             ; PF-E-POS
5927   1890             l1890h:
5928   1890 3E 15           ld a,015h
5929   1892             
5930   1892             ; PF-E-SIGN
5931   1892             l1892h:
5932   1892 D7              rst 10h
5933   1893 78              ld a,b
5934   1894 06 FF           ld b,0ffh
5935   1896             
5936   1896             ; PF-E-TENS
5937   1896             l1896h:
5938   1896 04              inc b
5939   1897 D6 0A           sub 00ah
5940   1899 30 FB           jr nc,l1896h
5941   189B C6 0A           add a,00ah
5942   189D 4F              ld c,a
5943   189E 78              ld a,b
5944   189F A7              and a
5945   18A0 28 03           jr z,l18a5h
5946   18A2 CD 8C 09        call sub_098ch
5947   18A5             
5948   18A5             ; PF-E-LOW
5949   18A5             l18a5h:
5950   18A5 79              ld a,c
5951   18A6 C3 8C 09        jp sub_098ch
5952   18A9             
5953   18A9             ; PF-ZEROS
5954   18A9             l18a9h:
5955   18A9 ED 44           neg
5956   18AB 47              ld b,a
5957   18AC 3E 1B           ld a,01bh
5958   18AE D7              rst 10h
5959   18AF             l18afh:
5960   18AF 3E 1C           ld a,01ch
5961   18B1             
5962   18B1             ; PF-ZRO-LP  - ZX81 jumped to line above?
5963   18B1 D7              rst 10h
5964   18B2 10 FB           djnz l18afh
5965   18B4 18 09           jr l18bfh
5966   18B6             
5967   18B6             ; PF-ZERO-1
5968   18B6             l18b6h:
5969   18B6 3E 1C           ld a,01ch
5970   18B8 D7              rst 10h
5971   18B9             
5972   18B9             ; PF-DC-OUT
5973   18B9             l18b9h:
5974   18B9 35              dec (hl)
5975   18BA 34              inc (hl)
5976   18BB E8              ret pe
5977   18BC 3E 1B           ld a,01bh
5978   18BE D7              rst 10h
5979   18BF             
5980   18BF             ; PF-FRAC-LP
5981   18BF             l18bfh:
5982   18BF 35              dec (hl)
5983   18C0 34              inc (hl)
5984   18C1 E8              ret pe
5985   18C2 CD C7 18        call sub_18c7h
5986   18C5 18 F8           jr l18bfh
5987   18C7             
5988   18C7             ; PF-NIBBLE
5989   18C7             sub_18c7h:
5990   18C7 7E              ld a,(hl)
5991   18C8 E6 0F           and 00fh
5992   18CA CD 8C 09        call sub_098ch
5993   18CD 2B              dec hl
5994   18CE C9              ret
5995   18CF             
5996   18CF             ; -------------------------------
5997   18CF             ; THE 'PREPARE TO ADD' SUBROUTINE
5998   18CF             ; -------------------------------
5999   18CF             
6000   18CF             ; PREP-ADD
6001   18CF             sub_18cfh:
6002   18CF 7E              ld a,(hl)
6003   18D0 36 00           ld (hl),000h
6004   18D2 A7              and a
6005   18D3 C8              ret z
6006   18D4 23              inc hl
6007   18D5 CB 7E           bit 7,(hl)
6008   18D7 CB FE           set 7,(hl)
6009   18D9 2B              dec hl
6010   18DA C8              ret z
6011   18DB C5              push bc
6012   18DC 01 05 00        ld bc,00005h
6013   18DF 09              add hl,bc
6014   18E0 41              ld b,c
6015   18E1 4F              ld c,a
6016   18E2 37              scf
6017   18E3             
6018   18E3             ; NEG-BYTE
6019   18E3             l18e3h:
6020   18E3 2B              dec hl
6021   18E4 7E              ld a,(hl)
6022   18E5 2F              cpl
6023   18E6 CE 00           adc a,000h
6024   18E8 77              ld (hl),a
6025   18E9 10 F8           djnz l18e3h
6026   18EB 79              ld a,c
6027   18EC C1              pop bc
6028   18ED C9              ret
6029   18EE             
6030   18EE             ; ----------------------------------
6031   18EE             ; THE 'FETCH TWO NUMBERS' SUBROUTINE
6032   18EE             ; ----------------------------------
6033   18EE             
6034   18EE             ; FETCH-TWO
6035   18EE             sub_18eeh:
6036   18EE E5              push hl
6037   18EF F5              push af
6038   18F0 4E              ld c,(hl)
6039   18F1 23              inc hl
6040   18F2 46              ld b,(hl)
6041   18F3 77              ld (hl),a
6042   18F4 23              inc hl
6043   18F5 79              ld a,c
6044   18F6 4E              ld c,(hl)
6045   18F7 C5              push bc
6046   18F8 23              inc hl
6047   18F9 4E              ld c,(hl)
6048   18FA 23              inc hl
6049   18FB 46              ld b,(hl)
6050   18FC EB              ex de,hl
6051   18FD 57              ld d,a
6052   18FE 5E              ld e,(hl)
6053   18FF D5              push de
6054   1900 23              inc hl
6055   1901 56              ld d,(hl)
6056   1902 23              inc hl
6057   1903 5E              ld e,(hl)
6058   1904 D5              push de
6059   1905 D9              exx
6060   1906 D1              pop de
6061   1907 E1              pop hl
6062   1908 C1              pop bc
6063   1909 D9              exx
6064   190A 23              inc hl
6065   190B 56              ld d,(hl)
6066   190C 23              inc hl
6067   190D 5E              ld e,(hl)
6068   190E F1              pop af
6069   190F E1              pop hl
6070   1910 C9              ret
6071   1911             
6072   1911             ; -----------------------------
6073   1911             ; THE 'SHIFT ADDEND' SUBROUTINE
6074   1911             ; -----------------------------
6075   1911             
6076   1911             ; SHIFT-FP
6077   1911             sub_1911h:
6078   1911 A7              and a
6079   1912 C8              ret z
6080   1913 FE 21           cp 021h
6081   1915 30 16           jr nc,l192dh
6082   1917 C5              push bc
6083   1918 47              ld b,a
6084   1919             
6085   1919             ; ONE-SHIFT
6086   1919             l1919h:
6087   1919 D9              exx
6088   191A CB 2D           sra l
6089   191C CB 1A           rr d
6090   191E CB 1B           rr e
6091   1920 D9              exx
6092   1921 CB 1A           rr d
6093   1923 CB 1B           rr e
6094   1925 10 F2           djnz l1919h
6095   1927 C1              pop bc
6096   1928 D0              ret nc
6097   1929 CD 38 19        call sub_1938h
6098   192C C0              ret nz
6099   192D             
6100   192D             ; ADDEND-0
6101   192D             l192dh:
6102   192D D9              exx
6103   192E AF              xor a
6104   192F             
6105   192F             ; ZEROS-4/5
6106   192F             sub_192fh:
6107   192F 2E 00           ld l,000h
6108   1931 57              ld d,a
6109   1932 5D              ld e,l
6110   1933 D9              exx
6111   1934 11 00 00        ld de,l0000h
6112   1937 C9              ret
6113   1938             
6114   1938             ; -------------------------
6115   1938             ; THE 'ADD-BACK' SUBROUTINE
6116   1938             ; -------------------------
6117   1938             
6118   1938             ; ADD-BACK
6119   1938             sub_1938h:
6120   1938 1C              inc e
6121   1939 C0              ret nz
6122   193A 14              inc d
6123   193B C0              ret nz
6124   193C D9              exx
6125   193D 1C              inc e
6126   193E 20 01           jr nz,l1941h
6127   1940 14              inc d
6128   1941             
6129   1941             ; ALL-ADDED
6130   1941             l1941h:
6131   1941 D9              exx
6132   1942 C9              ret
6133   1943             
6134   1943             ; --------------------------------
6135   1943             ; THE 'SUBTRACTION' OPERATION (03)
6136   1943             ; --------------------------------
6137   1943             
6138   1943             ; subtract
6139   1943             sub_1943h:
6140   1943 1A              ld a,(de)
6141   1944 A7              and a
6142   1945 C8              ret z
6143   1946 13              inc de
6144   1947 1A              ld a,(de)
6145   1948 EE 80           xor 080h
6146   194A 12              ld (de),a
6147   194B 1B              dec de
6148   194C             
6149   194C             ; -----------------------------
6150   194C             ; THE 'ADDITION' OPERATION (0F)
6151   194C             ; -----------------------------
6152   194C             
6153   194C             ; addition
6154   194C             sub_194ch:
6155   194C D9              exx
6156   194D E5              push hl
6157   194E D9              exx
6158   194F D5              push de
6159   1950 E5              push hl
6160   1951 CD CF 18        call sub_18cfh
6161   1954 47              ld b,a
6162   1955 EB              ex de,hl
6163   1956 CD CF 18        call sub_18cfh
6164   1959 4F              ld c,a
6165   195A B8              cp b
6166   195B 30 03           jr nc,l1960h
6167   195D 78              ld a,b
6168   195E 41              ld b,c
6169   195F EB              ex de,hl
6170   1960             
6171   1960             ; SHIFT-LEN
6172   1960             l1960h:
6173   1960 F5              push af
6174   1961 90              sub b
6175   1962 CD EE 18        call sub_18eeh
6176   1965 CD 11 19        call sub_1911h
6177   1968 F1              pop af
6178   1969 E1              pop hl
6179   196A 77              ld (hl),a
6180   196B E5              push hl
6181   196C 68              ld l,b
6182   196D 61              ld h,c
6183   196E 19              add hl,de
6184   196F D9              exx
6185   1970 EB              ex de,hl
6186   1971 ED 4A           adc hl,bc
6187   1973 EB              ex de,hl
6188   1974 7C              ld a,h
6189   1975 8D              adc a,l
6190   1976 6F              ld l,a
6191   1977 1F              rra
6192   1978 AD              xor l
6193   1979 D9              exx
6194   197A EB              ex de,hl
6195   197B E1              pop hl
6196   197C 1F              rra
6197   197D 30 08           jr nc,l1987h
6198   197F 3E 01           ld a,001h
6199   1981 CD 11 19        call sub_1911h
6200   1984 34              inc (hl)
6201   1985 28 23           jr z,l19aah
6202   1987             
6203   1987             ; TEST-NEG
6204   1987             l1987h:
6205   1987 D9              exx
6206   1988 7D              ld a,l
6207   1989 E6 80           and 080h
6208   198B D9              exx
6209   198C 23              inc hl
6210   198D 77              ld (hl),a
6211   198E 2B              dec hl
6212   198F 28 1F           jr z,l19b0h
6213   1991 7B              ld a,e
6214   1992 ED 44           neg
6215   1994 3F              ccf
6216   1995 5F              ld e,a
6217   1996 7A              ld a,d
6218   1997 2F              cpl
6219   1998 CE 00           adc a,000h
6220   199A 57              ld d,a
6221   199B D9              exx
6222   199C 7B              ld a,e
6223   199D 2F              cpl
6224   199E CE 00           adc a,000h
6225   19A0 5F              ld e,a
6226   19A1 7A              ld a,d
6227   19A2 2F              cpl
6228   19A3 CE 00           adc a,000h
6229   19A5 30 07           jr nc,l19aeh
6230   19A7 1F              rra
6231   19A8 D9              exx
6232   19A9 34              inc (hl)
6233   19AA             
6234   19AA             ; ADD-REP-6
6235   19AA             l19aah:
6236   19AA CA 77 1A        jp z,l1a77h
6237   19AD D9              exx
6238   19AE             
6239   19AE             ; END-COMPL
6240   19AE             l19aeh:
6241   19AE 57              ld d,a
6242   19AF D9              exx
6243   19B0             
6244   19B0             ; GO-NC-MLT
6245   19B0             l19b0h:
6246   19B0 AF              xor a
6247   19B1 18 6C           jr l1a1fh
6248   19B3             
6249   19B3             ; ----------------------------------------------
6250   19B3             ; THE 'PREPARE TO MULTIPLY OR DIVIDE' SUBROUTINE
6251   19B3             ; ----------------------------------------------
6252   19B3             
6253   19B3             ; PREP-M/D
6254   19B3             sub_19b3h:
6255   19B3 37              scf
6256   19B4 35              dec (hl)
6257   19B5 34              inc (hl)
6258   19B6 C8              ret z
6259   19B7 23              inc hl
6260   19B8 AE              xor (hl)
6261   19B9 CB FE           set 7,(hl)
6262   19BB 2B              dec hl
6263   19BC C9              ret
6264   19BD             
6265   19BD             ; -----------------------------------
6266   19BD             ; THE 'MULTIPLICATION' OPERATION (04)
6267   19BD             ; -----------------------------------
6268   19BD             
6269   19BD             ; multiply
6270   19BD             sub_19bdh:
6271   19BD AF              xor a
6272   19BE CD B3 19        call sub_19b3h
6273   19C1 D8              ret c
6274   19C2 D9              exx
6275   19C3 E5              push hl
6276   19C4 D9              exx
6277   19C5 D5              push de
6278   19C6 EB              ex de,hl
6279   19C7 CD B3 19        call sub_19b3h
6280   19CA EB              ex de,hl
6281   19CB 38 5A           jr c,l1a27h
6282   19CD E5              push hl
6283   19CE CD EE 18        call sub_18eeh
6284   19D1 78              ld a,b
6285   19D2 A7              and a
6286   19D3 ED 62           sbc hl,hl
6287   19D5 D9              exx
6288   19D6 E5              push hl
6289   19D7 ED 62           sbc hl,hl
6290   19D9 D9              exx
6291   19DA 06 21           ld b,021h
6292   19DC 18 11           jr l19efh
6293   19DE             
6294   19DE             ; MLT-LOOP
6295   19DE             l19deh:
6296   19DE 30 05           jr nc,l19e5h
6297   19E0 19              add hl,de
6298   19E1 D9              exx
6299   19E2 ED 5A           adc hl,de
6300   19E4 D9              exx
6301   19E5             
6302   19E5             ; NO-ADD
6303   19E5             l19e5h:
6304   19E5 D9              exx
6305   19E6 CB 1C           rr h
6306   19E8 CB 1D           rr l
6307   19EA D9              exx
6308   19EB CB 1C           rr h
6309   19ED CB 1D           rr l
6310   19EF             
6311   19EF             ; STRT-MLT
6312   19EF             l19efh:
6313   19EF D9              exx
6314   19F0 CB 18           rr b
6315   19F2 CB 19           rr c
6316   19F4 D9              exx
6317   19F5 CB 19           rr c
6318   19F7 1F              rra
6319   19F8 10 E4           djnz l19deh
6320   19FA EB              ex de,hl
6321   19FB D9              exx
6322   19FC EB              ex de,hl
6323   19FD D9              exx
6324   19FE C1              pop bc
6325   19FF E1              pop hl
6326   1A00 78              ld a,b
6327   1A01 81              add a,c
6328   1A02 20 01           jr nz,l1a05h
6329   1A04 A7              and a
6330   1A05             
6331   1A05             ; MAKE-EXPT
6332   1A05             l1a05h:
6333   1A05 3D              dec a
6334   1A06 3F              ccf
6335   1A07             
6336   1A07             ; DIVN-EXPT
6337   1A07             l1a07h:
6338   1A07 17              rla
6339   1A08 3F              ccf
6340   1A09 1F              rra
6341   1A0A F2 10 1A        jp p,l1a10h
6342   1A0D 30 68           jr nc,l1a77h
6343   1A0F A7              and a
6344   1A10             
6345   1A10             ; OFLW1-CLR
6346   1A10             l1a10h:
6347   1A10 3C              inc a
6348   1A11 20 08           jr nz,l1a1bh
6349   1A13 38 06           jr c,l1a1bh
6350   1A15 D9              exx
6351   1A16 CB 7A           bit 7,d
6352   1A18 D9              exx
6353   1A19 20 5C           jr nz,l1a77h
6354   1A1B             
6355   1A1B             ; OFLW2-CLR
6356   1A1B             l1a1bh:
6357   1A1B 77              ld (hl),a
6358   1A1C D9              exx
6359   1A1D 78              ld a,b
6360   1A1E D9              exx
6361   1A1F             
6362   1A1F             ; TEST-NORM
6363   1A1F             l1a1fh:
6364   1A1F 30 15           jr nc,l1a36h
6365   1A21 7E              ld a,(hl)
6366   1A22 A7              and a
6367   1A23             
6368   1A23             ; NEAR-ZERO
6369   1A23             l1a23h:
6370   1A23 3E 80           ld a,080h
6371   1A25 28 01           jr z,l1a28h
6372   1A27             
6373   1A27             ; ZERO-RSLT
6374   1A27             l1a27h:
6375   1A27 AF              xor a
6376   1A28             
6377   1A28             ; SKIP-ZERO
6378   1A28             l1a28h:
6379   1A28 D9              exx
6380   1A29 A2              and d
6381   1A2A CD 2F 19        call sub_192fh
6382   1A2D 07              rlca
6383   1A2E 77              ld (hl),a
6384   1A2F 38 2E           jr c,l1a5fh
6385   1A31 23              inc hl
6386   1A32 77              ld (hl),a
6387   1A33 2B              dec hl
6388   1A34 18 29           jr l1a5fh
6389   1A36             
6390   1A36             ; NORMALIZE
6391   1A36             l1a36h:
6392   1A36 06 20           ld b,020h
6393   1A38             
6394   1A38             ; SHIFT-ONE
6395   1A38             l1a38h:
6396   1A38 D9              exx
6397   1A39 CB 7A           bit 7,d
6398   1A3B D9              exx
6399   1A3C 20 12           jr nz,l1a50h
6400   1A3E 07              rlca
6401   1A3F CB 13           rl e
6402   1A41 CB 12           rl d
6403   1A43 D9              exx
6404   1A44 CB 13           rl e
6405   1A46 CB 12           rl d
6406   1A48 D9              exx
6407   1A49 35              dec (hl)
6408   1A4A 28 D7           jr z,l1a23h
6409   1A4C 10 EA           djnz l1a38h
6410   1A4E 18 D7           jr l1a27h
6411   1A50             
6412   1A50             ; NORML-NOW
6413   1A50             l1a50h:
6414   1A50 17              rla
6415   1A51 30 0C           jr nc,l1a5fh
6416   1A53 CD 38 19        call sub_1938h
6417   1A56 20 07           jr nz,l1a5fh
6418   1A58 D9              exx
6419   1A59 16 80           ld d,080h
6420   1A5B D9              exx
6421   1A5C 34              inc (hl)
6422   1A5D 28 18           jr z,l1a77h
6423   1A5F             
6424   1A5F             ; OFLOW-CLR
6425   1A5F             l1a5fh:
6426   1A5F E5              push hl
6427   1A60 23              inc hl
6428   1A61 D9              exx
6429   1A62 D5              push de
6430   1A63 D9              exx
6431   1A64 C1              pop bc
6432   1A65 78              ld a,b
6433   1A66 17              rla
6434   1A67 CB 16           rl (hl)
6435   1A69 1F              rra
6436   1A6A 77              ld (hl),a
6437   1A6B 23              inc hl
6438   1A6C 71              ld (hl),c
6439   1A6D 23              inc hl
6440   1A6E 72              ld (hl),d
6441   1A6F 23              inc hl
6442   1A70 73              ld (hl),e
6443   1A71 E1              pop hl
6444   1A72 D1              pop de
6445   1A73 D9              exx
6446   1A74 E1              pop hl
6447   1A75 D9              exx
6448   1A76 C9              ret
6449   1A77             
6450   1A77             ; REPORT-6
6451   1A77             l1a77h:
6452   1A77 CF              rst 08h                 ; ERROR-1
6453   1A78 05              .byte $05               ; OV arithmetic OVerflow.
6454   1A79             
6455   1A79             ; -----------------------------
6456   1A79             ; THE 'DIVISION' OPERATION (05)
6457   1A79             ; -----------------------------
6458   1A79             
6459   1A79             ; division
6460   1A79             sub_1a79h:
6461   1A79 EB              ex de,hl
6462   1A7A AF              xor a
6463   1A7B CD B3 19        call sub_19b3h
6464   1A7E 38 F7           jr c,l1a77h
6465   1A80 EB              ex de,hl
6466   1A81 CD B3 19        call sub_19b3h
6467   1A84 D8              ret c
6468   1A85 D9              exx
6469   1A86 E5              push hl
6470   1A87 D9              exx
6471   1A88 D5              push de
6472   1A89 E5              push hl
6473   1A8A CD EE 18        call sub_18eeh
6474   1A8D D9              exx
6475   1A8E E5              push hl
6476   1A8F 60              ld h,b
6477   1A90 69              ld l,c
6478   1A91 D9              exx
6479   1A92 61              ld h,c
6480   1A93 68              ld l,b
6481   1A94 AF              xor a
6482   1A95 06 DF           ld b,0dfh
6483   1A97 18 10           jr l1aa9h
6484   1A99             
6485   1A99             ; DIV-LOOP
6486   1A99             l1a99h:
6487   1A99 17              rla
6488   1A9A CB 11           rl c
6489   1A9C D9              exx
6490   1A9D CB 11           rl c
6491   1A9F CB 10           rl b
6492   1AA1 D9              exx
6493   1AA2             
6494   1AA2             ; div-34th
6495   1AA2             l1aa2h:
6496   1AA2 29              add hl,hl
6497   1AA3 D9              exx
6498   1AA4 ED 6A           adc hl,hl
6499   1AA6 D9              exx
6500   1AA7 38 10           jr c,l1ab9h
6501   1AA9             
6502   1AA9             ; DIV-START
6503   1AA9             l1aa9h:
6504   1AA9 ED 52           sbc hl,de
6505   1AAB D9              exx
6506   1AAC ED 52           sbc hl,de
6507   1AAE D9              exx
6508   1AAF 30 0F           jr nc,l1ac0h
6509   1AB1 19              add hl,de
6510   1AB2 D9              exx
6511   1AB3 ED 5A           adc hl,de
6512   1AB5 D9              exx
6513   1AB6 A7              and a
6514   1AB7 18 08           jr l1ac1h
6515   1AB9             
6516   1AB9             ; SUBN-ONLY
6517   1AB9             l1ab9h:
6518   1AB9 A7              and a
6519   1ABA ED 52           sbc hl,de
6520   1ABC D9              exx
6521   1ABD ED 52           sbc hl,de
6522   1ABF D9              exx
6523   1AC0             
6524   1AC0             ; NO-RSTORE
6525   1AC0             l1ac0h:
6526   1AC0 37              scf
6527   1AC1             
6528   1AC1             ; COUNT-ONE
6529   1AC1             l1ac1h:
6530   1AC1 04              inc b
6531   1AC2 FA 99 1A        jp m,l1a99h
6532   1AC5 F5              push af
6533   1AC6 28 DA           jr z,l1aa2h             ; fix to ZX81 jumps to div-34th not DIV-START
6534   1AC8 5F              ld e,a
6535   1AC9 51              ld d,c
6536   1ACA D9              exx
6537   1ACB 59              ld e,c
6538   1ACC 50              ld d,b
6539   1ACD F1              pop af
6540   1ACE CB 18           rr b
6541   1AD0 F1              pop af
6542   1AD1 CB 18           rr b
6543   1AD3 D9              exx
6544   1AD4 C1              pop bc
6545   1AD5 E1              pop hl
6546   1AD6 78              ld a,b
6547   1AD7 91              sub c
6548   1AD8 C3 07 1A        jp l1a07h
6549   1ADB             
6550   1ADB             ; -----------------------------------------------------
6551   1ADB             ; THE 'INTEGER TRUNCATION TOWARDS ZERO' SUBROUTINE (36)
6552   1ADB             ; -----------------------------------------------------
6553   1ADB             
6554   1ADB             ; truncate
6555   1ADB             sub_1adbh:
6556   1ADB 7E              ld a,(hl)
6557   1ADC FE 81           cp 081h
6558   1ADE 30 06           jr nc,l1ae6h
6559   1AE0 36 00           ld (hl),000h
6560   1AE2 3E 20           ld a,020h
6561   1AE4 18 05           jr l1aebh
6562   1AE6             
6563   1AE6             ; T-GR-ZERO
6564   1AE6             l1ae6h:
6565   1AE6 D6 A0           sub 0a0h
6566   1AE8 F0              ret p
6567   1AE9 ED 44           neg
6568   1AEB             
6569   1AEB             ; NIL-BYTES
6570   1AEB             l1aebh:
6571   1AEB D5              push de
6572   1AEC EB              ex de,hl
6573   1AED 2B              dec hl
6574   1AEE 47              ld b,a
6575   1AEF CB 38           srl b
6576   1AF1 CB 38           srl b
6577   1AF3 CB 38           srl b
6578   1AF5 28 05           jr z,l1afch
6579   1AF7             
6580   1AF7             ; BYTE-ZERO
6581   1AF7             l1af7h:
6582   1AF7 36 00           ld (hl),000h
6583   1AF9 2B              dec hl
6584   1AFA 10 FB           djnz l1af7h
6585   1AFC             
6586   1AFC             ; BITS-ZERO
6587   1AFC             l1afch:
6588   1AFC E6 07           and 007h
6589   1AFE 28 09           jr z,l1b09h
6590   1B00 47              ld b,a
6591   1B01 3E FF           ld a,0ffh
6592   1B03             
6593   1B03             ; LESS-MASK
6594   1B03             l1b03h:
6595   1B03 CB 27           sla a
6596   1B05 10 FC           djnz l1b03h
6597   1B07 A6              and (hl)
6598   1B08 77              ld (hl),a
6599   1B09             
6600   1B09             ; IX-END
6601   1B09             l1b09h:
6602   1B09 EB              ex de,hl
6603   1B0A D1              pop de
6604   1B0B C9              ret
6605   1B0C             
6606   1B0C             ;********************************
6607   1B0C             ;**  FLOATING-POINT CALCULATOR **
6608   1B0C             ;********************************
6609   1B0C             
6610   1B0C             ; ------------------------
6611   1B0C             ; THE 'TABLE OF CONSTANTS'
6612   1B0C             ; ------------------------
6613   1B0C             l1b0ch:
6614   1B0C             ; stk-zero                                                 00 00 00 00 00
6615   1B0C 00              .byte    $00            ;;Bytes: 1
6616   1B0D B0              .byte    $B0            ;;Exponent $00
6617   1B0E 00              .byte    $00            ;;(+00,+00,+00)
6618   1B0F             
6619   1B0F             ; stk-one                                                  81 00 00 00 00
6620   1B0F 31              .byte    $31            ;;Exponent $81, Bytes: 1
6621   1B10 00              .byte    $00            ;;(+00,+00,+00)
6622   1B11             
6623   1B11             
6624   1B11             ; stk-half                                                 80 00 00 00 00
6625   1B11 30              .byte    $30            ;;Exponent: $80, Bytes: 1
6626   1B12 00              .byte    $00            ;;(+00,+00,+00)
6627   1B13             
6628   1B13             
6629   1B13             ; stk-pi/2                                                 81 49 0F DA A2
6630   1B13 F1              .byte    $F1            ;;Exponent: $81, Bytes: 4
6631   1B14 49 0F DA A2     .byte    $49,$0F,$DA,$A2
6632   1B18             
6633   1B18             ; stk-ten                                                  84 20 00 00 00
6634   1B18 34              .byte    $34            ;;Exponent: $84, Bytes: 1
6635   1B19 20              .byte    $20            ;;(+00,+00,+00)
6636   1B1A             
6637   1B1A             ; ------------------------
6638   1B1A             ; THE 'TABLE OF ADDRESSES'
6639   1B1A             ; ------------------------
6640   1B1A             l1b1ah:
6641   1B1A 1E 1E           .word sub_1e1eh         ; $00 - jump-true
6642   1B1C 67 1C           .word sub_1c67h         ; $01 - exchange
6643   1B1E DA 1B           .word sub_1bdah         ; $02 - delete
6644   1B20 43 19           .word sub_1943h         ; $03 - subtract
6645   1B22 BD 19           .word sub_19bdh         ; $04 - multiply
6646   1B24 79 1A           .word sub_1a79h         ; $05 - division
6647   1B26 D1 1F           .word sub_1fd1h         ; $06 - to-power
6648   1B28 E2 1C           .word sub_1ce2h         ; $07 - or
6649   1B2A E8 1C           .word sub_1ce8h         ; $08 - no-&-no
6650   1B2C F8 1C           .word sub_1cf8h         ; $09 - no-l-eql
6651   1B2E F8 1C           .word sub_1cf8h         ; $0A - no-gr-eql
6652   1B30 F8 1C           .word sub_1cf8h         ; $0B - nos-neql
6653   1B32 F8 1C           .word sub_1cf8h         ; $0C - no-grtr
6654   1B34 F8 1C           .word sub_1cf8h         ; $0D - no-less
6655   1B36 F8 1C           .word sub_1cf8h         ; $0E - nos-eql
6656   1B38 4C 19           .word sub_194ch         ; $0F - addition
6657   1B3A ED 1C           .word sub_1cedh         ; $10 - str-&-no
6658   1B3C F8 1C           .word sub_1cf8h         ; $11 - str-l-eql
6659   1B3E F8 1C           .word sub_1cf8h         ; $12 - str-gr-eql
6660   1B40 F8 1C           .word sub_1cf8h         ; $13 - strs-neql
6661   1B42 F8 1C           .word sub_1cf8h         ; $14 - str-grtr
6662   1B44 F8 1C           .word sub_1cf8h         ; $15 - str-less
6663   1B46 F8 1C           .word sub_1cf8h         ; $16 - strs-eql
6664   1B48 57 1D           .word sub_1d57h         ; $17 - strs-add
6665   1B4A 95 1C           .word sub_1c95h         ; $18 - neg
6666   1B4C F5 1D           .word sub_1df5h         ; $19 - code
6667   1B4E 93 1D           .word sub_1d93h         ; $1A - val
6668   1B50 00 1E           .word sub_1e00h         ; $1B - len
6669   1B52 38 1F           .word sub_1f38h         ; $1C - sin
6670   1B54 2D 1F           .word sub_1f2dh         ; $1D - cos
6671   1B56 5D 1F           .word sub_1f5dh         ; $1E - tan
6672   1B58 B3 1F           .word sub_1fb3h         ; $1F - asn
6673   1B5A C3 1F           .word sub_1fc3h         ; $20 - acs
6674   1B5C 65 1F           .word sub_1f65h         ; $21 - atn
6675   1B5E 98 1E           .word sub_1e98h         ; $22 - ln
6676   1B60 4A 1E           .word sub_1e4ah         ; $23 - exp
6677   1B62 35 1E           .word sub_1e35h         ; $24 - int
6678   1B64 CA 1F           .word sub_1fcah         ; $25 - sqr
6679   1B66 A4 1C           .word sub_1ca4h         ; $26 - sgn
6680   1B68 9F 1C           .word sub_1c9fh         ; $27 - abs
6681   1B6A B3 1C           .word sub_1cb3h         ; $28 - peek
6682   1B6C BA 1C           .word sub_1cbah         ; $29 - usr-no
6683   1B6E C4 1D           .word sub_1dc4h         ; $2A - str$
6684   1B70 84 1D           .word sub_1d84h         ; $2B - chrs
6685   1B72 CA 1C           .word sub_1ccah         ; $2C - not
6686   1B74 ED 1B           .word sub_1bedh         ; $2D - duplicate
6687   1B76 26 1E           .word sub_1e26h         ; $2E - n-mod-m
6688   1B78 12 1E           .word sub_1e12h         ; $2F - jump
6689   1B7A F3 1B           .word sub_1bf3h         ; $30 - stk-data
6690   1B7C 06 1E           .word sub_1e06h         ; $31 - dec-jr-nz
6691   1B7E D0 1C           .word sub_1cd0h         ; $32 - less-0
6692   1B80 C3 1C           .word sub_1cc3h         ; $33 - greater-0
6693   1B82 2B 00           .word sub_002bh         ; $34 - end-calc
6694   1B84 07 1F           .word sub_1f07h         ; $35 - get-argt
6695   1B86 DB 1A           .word sub_1adbh         ; $36 - truncate
6696   1B88 DB 1B           .word sub_1bdbh         ; $37 - fp-calc-2
6697   1B8A 52 17           .word sub_1752h         ; $38 - e-to-fp
6698   1B8C 74 1C           .word sub_1c74h         ; $39 - series-xx    $80 - $9F.
6699   1B8E 39 1C           .word sub_1c39h         ; $3A - stk-const-xx $A0 - $BF.
6700   1B90 58 1C           .word sub_1c58h         ; $3B - st-mem-xx    $C0 - $DF.
6701   1B92 2D 1C           .word sub_1c2dh         ; $3C - get-mem-xx   $E0 - $FF.
6702   1B94             
6703   1B94             ; -------------------------------
6704   1B94             ; THE 'FLOATING POINT CALCULATOR'
6705   1B94             ; -------------------------------
6706   1B94             
6707   1B94             ; CALCULATE
6708   1B94             l1b94h:
6709   1B94 CD 7A 1D        call sub_1d7ah
6710   1B97             
6711   1B97             ; GEN-ENT-1
6712   1B97             sub_1b97h:
6713   1B97 78              ld a,b
6714   1B98 32 1E 40        ld (0401eh),a
6715   1B9B             
6716   1B9B             ; GEN-ENT-2
6717   1B9B             sub_1b9bh:
6718   1B9B D9              exx
6719   1B9C E3              ex (sp),hl
6720   1B9D D9              exx
6721   1B9E             
6722   1B9E             ; RE-ENTRY
6723   1B9E             l1b9eh:
6724   1B9E ED 53 1C 40     ld (0401ch),de
6725   1BA2 D9              exx
6726   1BA3 7E              ld a,(hl)
6727   1BA4 23              inc hl
6728   1BA5             
6729   1BA5             ; SCAN-ENT
6730   1BA5             l1ba5h:
6731   1BA5 E5              push hl
6732   1BA6 A7              and a
6733   1BA7 F2 B9 1B        jp p,l1bb9h
6734   1BAA 57              ld d,a
6735   1BAB E6 60           and 060h
6736   1BAD 0F              rrca
6737   1BAE 0F              rrca
6738   1BAF 0F              rrca
6739   1BB0 0F              rrca
6740   1BB1 C6 72           add a,072h
6741   1BB3 6F              ld l,a
6742   1BB4 7A              ld a,d
6743   1BB5 E6 1F           and 01fh
6744   1BB7 18 0E           jr l1bc7h
6745   1BB9             
6746   1BB9             ; FIRST-3D
6747   1BB9             l1bb9h:
6748   1BB9 FE 18           cp 018h
6749   1BBB 30 08           jr nc,l1bc5h
6750   1BBD D9              exx
6751   1BBE 01 FB FF        ld bc,0fffbh
6752   1BC1 54              ld d,h
6753   1BC2 5D              ld e,l
6754   1BC3 09              add hl,bc
6755   1BC4 D9              exx
6756   1BC5             
6757   1BC5             ; DOUBLE-A
6758   1BC5             l1bc5h:
6759   1BC5 07              rlca
6760   1BC6 6F              ld l,a
6761   1BC7             
6762   1BC7             ; ENT-TABLE
6763   1BC7             l1bc7h:
6764   1BC7 11 1A 1B        ld de,l1b1ah
6765   1BCA 26 00           ld h,000h
6766   1BCC 19              add hl,de
6767   1BCD 5E              ld e,(hl)
6768   1BCE 23              inc hl
6769   1BCF 56              ld d,(hl)
6770   1BD0 21 9E 1B        ld hl,l1b9eh
6771   1BD3 E3              ex (sp),hl
6772   1BD4 D5              push de
6773   1BD5 D9              exx
6774   1BD6 ED 4B 1D 40     ld bc,(0401dh)
6775   1BDA             
6776   1BDA             ; -----------------------
6777   1BDA             ; THE 'DELETE' SUBROUTINE
6778   1BDA             ; -----------------------
6779   1BDA             
6780   1BDA             ; delete
6781   1BDA             sub_1bdah:
6782   1BDA C9              ret
6783   1BDB             
6784   1BDB             ; ---------------------------------
6785   1BDB             ; THE 'SINGLE OPERATION' SUBROUTINE
6786   1BDB             ; ---------------------------------
6787   1BDB             
6788   1BDB             ; fp-calc-2
6789   1BDB             sub_1bdbh:
6790   1BDB F1              pop af
6791   1BDC 3A 1E 40        ld a,(0401eh)
6792   1BDF D9              exx
6793   1BE0 18 C3           jr l1ba5h
6794   1BE2             
6795   1BE2             ; ------------------------------
6796   1BE2             ; THE 'TEST 5 SPACES' SUBROUTINE
6797   1BE2             ; ------------------------------
6798   1BE2             
6799   1BE2             ; TEST-5-SP
6800   1BE2             sub_1be2h:
6801   1BE2 D5              push de
6802   1BE3 E5              push hl
6803   1BE4 01 05 00        ld bc,00005h
6804   1BE7 CD A0 10        call sub_10a0h
6805   1BEA             sub_1beah:
6806   1BEA E1              pop hl
6807   1BEB D1              pop de
6808   1BEC C9              ret
6809   1BED             
6810   1BED             ; ---------------------------------------------
6811   1BED             ; THE 'MOVE A FLOATING POINT NUMBER' SUBROUTINE
6812   1BED             ; ---------------------------------------------
6813   1BED             
6814   1BED             ; MOVE-FP
6815   1BED             sub_1bedh:
6816   1BED CD E2 1B        call sub_1be2h
6817   1BF0 ED B0           ldir
6818   1BF2 C9              ret
6819   1BF3             
6820   1BF3             ; -------------------------------
6821   1BF3             ; THE 'STACK LITERALS' SUBROUTINE
6822   1BF3             ; -------------------------------
6823   1BF3             
6824   1BF3             ; stk-data
6825   1BF3             sub_1bf3h:
6826   1BF3 62              ld h,d
6827   1BF4 6B              ld l,e
6828   1BF5             
6829   1BF5             ; STK-CONST
6830   1BF5             sub_1bf5h:
6831   1BF5 CD E2 1B        call sub_1be2h
6832   1BF8 D9              exx
6833   1BF9 E5              push hl
6834   1BFA D9              exx
6835   1BFB E3              ex (sp),hl
6836   1BFC C5              push bc
6837   1BFD 7E              ld a,(hl)
6838   1BFE E6 C0           and 0c0h
6839   1C00 07              rlca
6840   1C01 07              rlca
6841   1C02 4F              ld c,a
6842   1C03 0C              inc c
6843   1C04 7E              ld a,(hl)
6844   1C05 E6 3F           and 03fh
6845   1C07 20 02           jr nz,l1c0bh
6846   1C09 23              inc hl
6847   1C0A 7E              ld a,(hl)
6848   1C0B             
6849   1C0B             ; FORM-EXP
6850   1C0B             l1c0bh:
6851   1C0B C6 50           add a,050h
6852   1C0D 12              ld (de),a
6853   1C0E 3E 05           ld a,005h
6854   1C10 91              sub c
6855   1C11 23              inc hl
6856   1C12 13              inc de
6857   1C13 06 00           ld b,000h
6858   1C15 ED B0           ldir
6859   1C17 C1              pop bc
6860   1C18 E3              ex (sp),hl
6861   1C19 D9              exx
6862   1C1A E1              pop hl
6863   1C1B D9              exx
6864   1C1C 47              ld b,a
6865   1C1D AF              xor a
6866   1C1E             
6867   1C1E             ; STK-ZEROS
6868   1C1E             l1c1eh:
6869   1C1E 05              dec b
6870   1C1F C8              ret z
6871   1C20 12              ld (de),a
6872   1C21 13              inc de
6873   1C22 18 FA           jr l1c1eh
6874   1C24             
6875   1C24             ; --------------------------------
6876   1C24             ; THE 'MEMORY LOCATION' SUBROUTINE
6877   1C24             ; --------------------------------
6878   1C24             
6879   1C24             ; LOC-MEM (which came after SKIP-NEXT on the ZX81?)
6880   1C24             sub_1c24h:
6881   1C24 4F              ld c,a
6882   1C25 07              rlca
6883   1C26 07              rlca
6884   1C27 81              add a,c
6885   1C28 4F              ld c,a
6886   1C29 06 00           ld b,000h
6887   1C2B 09              add hl,bc
6888   1C2C C9              ret
6889   1C2D             
6890   1C2D             ; -------------------------------------
6891   1C2D             ; THE 'GET FROM MEMORY AREA' SUBROUTINE
6892   1C2D             ; -------------------------------------
6893   1C2D             
6894   1C2D             ; get-mem-xx
6895   1C2D             sub_1c2dh:
6896   1C2D D5              push de
6897   1C2E 2A 1F 40        ld hl,(0401fh)
6898   1C31 CD 24 1C        call sub_1c24h
6899   1C34 CD ED 1B        call sub_1bedh
6900   1C37 E1              pop hl
6901   1C38 C9              ret
6902   1C39             
6903   1C39             ; ---------------------------------
6904   1C39             ; THE 'STACK A CONSTANT' SUBROUTINE
6905   1C39             ; ---------------------------------
6906   1C39             
6907   1C39             ; stk-const-xx
6908   1C39             sub_1c39h:
6909   1C39 62              ld h,d
6910   1C3A 6B              ld l,e
6911   1C3B D9              exx
6912   1C3C E5              push hl
6913   1C3D 21 0C 1B        ld hl,l1b0ch
6914   1C40 D9              exx
6915   1C41             
6916   1C41             ; SKIP-CONS (ZX81 was a call rather than drop through)
6917   1C41 A7              and a
6918   1C42             
6919   1C42             ; SKIP-NEXT (ZX81 version is RET Z)
6920   1C42 28 0D           jr z,l1c51h
6921   1C44             
6922   1C44             l1c44h:
6923   1C44 F5              push af
6924   1C45 D5              push de
6925   1C46 11 00 00        ld de,l0000h
6926   1C49 CD F5 1B        call sub_1bf5h
6927   1C4C D1              pop de
6928   1C4D F1              pop af
6929   1C4E 3D              dec a
6930   1C4F 20 F3           jr nz,l1c44h
6931   1C51             l1c51h:
6932   1C51 CD F5 1B        call sub_1bf5h
6933   1C54 D9              exx
6934   1C55 E1              pop hl
6935   1C56 D9              exx
6936   1C57 C9              ret
6937   1C58             
6938   1C58             ; ---------------------------------------
6939   1C58             ; THE 'STORE IN A MEMORY AREA' SUBROUTINE
6940   1C58             ; ---------------------------------------
6941   1C58             
6942   1C58             ; st-mem-xx
6943   1C58             sub_1c58h:
6944   1C58 E5              push hl
6945   1C59 EB              ex de,hl
6946   1C5A 2A 1F 40        ld hl,(0401fh)
6947   1C5D CD 24 1C        call sub_1c24h
6948   1C60 EB              ex de,hl
6949   1C61 CD ED 1B        call sub_1bedh
6950   1C64 EB              ex de,hl
6951   1C65 E1              pop hl
6952   1C66 C9              ret
6953   1C67             
6954   1C67             ; -------------------------
6955   1C67             ; THE 'EXCHANGE' SUBROUTINE
6956   1C67             ; -------------------------
6957   1C67             
6958   1C67             ; exchange
6959   1C67             sub_1c67h:
6960   1C67 06 05           ld b,005h
6961   1C69             
6962   1C69             ; SWAP-BYTE
6963   1C69             l1c69h:
6964   1C69 1A              ld a,(de)
6965   1C6A 4E              ld c,(hl)
6966   1C6B EB              ex de,hl
6967   1C6C 12              ld (de),a
6968   1C6D 71              ld (hl),c
6969   1C6E 23              inc hl
6970   1C6F 13              inc de
6971   1C70 10 F7           djnz l1c69h
6972   1C72 EB              ex de,hl
6973   1C73 C9              ret
6974   1C74             
6975   1C74             ; ---------------------------------
6976   1C74             ; THE 'SERIES GENERATOR' SUBROUTINE
6977   1C74             ; ---------------------------------
6978   1C74             
6979   1C74             ; series-xx
6980   1C74             sub_1c74h:
6981   1C74 47              ld b,a
6982   1C75 CD 97 1B        call sub_1b97h
6983   1C78 2D              .byte    $2D            ;;duplicate       x,x
6984   1C79 0F              .byte    $0F            ;;addition        x+x
6985   1C7A C0              .byte    $C0            ;;st-mem-0        x+x
6986   1C7B 02              .byte    $02            ;;delete          .
6987   1C7C A0              .byte    $A0            ;;stk-zero        0
6988   1C7D C2              .byte    $C2            ;;st-mem-2        0
6989   1C7E             ;; G-LOOP
6990   1C7E 2D              .byte    $2D            ;;duplicate       v,v.
6991   1C7F E0              .byte    $E0            ;;get-mem-0       v,v,x+2
6992   1C80 04              .byte    $04            ;;multiply        v,v*x+2
6993   1C81 E2              .byte    $E2            ;;get-mem-2       v,v*x+2,v
6994   1C82 C1              .byte    $C1            ;;st-mem-1
6995   1C83 03              .byte    $03            ;;subtract
6996   1C84 34              .byte    $34            ;;end-calc
6997   1C85             
6998   1C85 CD F3 1B        call sub_1bf3h
6999   1C88 CD 9B 1B        call sub_1b9bh
7000   1C8B             
7001   1C8B 0F              .byte    $0F            ;;addition
7002   1C8C 01              .byte    $01            ;;exchange
7003   1C8D C2              .byte    $C2            ;;st-mem-2
7004   1C8E 02              .byte    $02            ;;delete
7005   1C8F 31              .byte    $31            ;;dec-jr-nz
7006   1C90 EE              .byte    $EE            ;;back to L1A89, G-LOOP
7007   1C91 E1              .byte    $E1            ;;get-mem-1
7008   1C92 03              .byte    $03            ;;subtract
7009   1C93 34              .byte    $34            ;;end-calc
7010   1C94 C9              ret
7011   1C95             
7012   1C95             ; -----------------------
7013   1C95             ; Handle unary minus (18)
7014   1C95             ; -----------------------
7015   1C95             
7016   1C95             ; negate
7017   1C95             sub_1c95h:
7018   1C95 7E              ld a,(hl)
7019   1C96 A7              and a
7020   1C97 C8              ret z
7021   1C98 23              inc hl
7022   1C99 7E              ld a,(hl)
7023   1C9A EE 80           xor 080h
7024   1C9C 77              ld (hl),a
7025   1C9D 2B              dec hl
7026   1C9E C9              ret
7027   1C9F             
7028   1C9F             ; -----------------------
7029   1C9F             ; Absolute magnitude (27)
7030   1C9F             ; -----------------------
7031   1C9F             
7032   1C9F             ; abs
7033   1C9F             sub_1c9fh:
7034   1C9F 23              inc hl
7035   1CA0 CB BE           res 7,(hl)
7036   1CA2 2B              dec hl
7037   1CA3 C9              ret
7038   1CA4             
7039   1CA4             ; -----------
7040   1CA4             ; Signum (26)
7041   1CA4             ; -----------
7042   1CA4             
7043   1CA4             ; sgn
7044   1CA4             sub_1ca4h:
7045   1CA4 23              inc hl
7046   1CA5 7E              ld a,(hl)
7047   1CA6 2B              dec hl
7048   1CA7 35              dec (hl)
7049   1CA8 34              inc (hl)
7050   1CA9 37              scf
7051   1CAA C4 D5 1C        call nz,sub_1cd5h
7052   1CAD 23              inc hl
7053   1CAE 07              rlca
7054   1CAF CB 1E           rr (hl)
7055   1CB1 2B              dec hl
7056   1CB2 C9              ret
7057   1CB3             
7058   1CB3             ; -------------------------
7059   1CB3             ; Handle PEEK function (28)
7060   1CB3             ; -------------------------
7061   1CB3             
7062   1CB3             ; peek
7063   1CB3             sub_1cb3h:
7064   1CB3 CD 88 10        call sub_1088h
7065   1CB6 0A              ld a,(bc)
7066   1CB7 C3 15 17        jp sub_1715h
7067   1CBA             
7068   1CBA             ; ---------------
7069   1CBA             ; USR number (29)
7070   1CBA             ; ---------------
7071   1CBA             
7072   1CBA             ; usr-no
7073   1CBA             sub_1cbah:
7074   1CBA CD 88 10        call sub_1088h
7075   1CBD 21 18 17        ld hl,sub_1718h
7076   1CC0 E5              push hl
7077   1CC1 C5              push bc
7078   1CC2 C9              ret
7079   1CC3             
7080   1CC3             ; -----------------------
7081   1CC3             ; Greater than zero ($33)
7082   1CC3             ; -----------------------
7083   1CC3             
7084   1CC3             ; greater-0
7085   1CC3             sub_1cc3h:
7086   1CC3 7E              ld a,(hl)
7087   1CC4 A7              and a
7088   1CC5 C8              ret z
7089   1CC6 3E FF           ld a,0ffh
7090   1CC8 18 07           jr l1cd1h
7091   1CCA             
7092   1CCA             
7093   1CCA             ; -------------------------
7094   1CCA             ; Handle NOT operator ($2C)
7095   1CCA             ; -------------------------
7096   1CCA             
7097   1CCA             ; not
7098   1CCA             sub_1ccah:
7099   1CCA 7E              ld a,(hl)
7100   1CCB ED 44           neg
7101   1CCD 3F              ccf
7102   1CCE 18 05           jr sub_1cd5h
7103   1CD0             
7104   1CD0             
7105   1CD0             ; -------------------
7106   1CD0             ; Less than zero (32)
7107   1CD0             ; -------------------
7108   1CD0             
7109   1CD0             ; less-0
7110   1CD0             sub_1cd0h:
7111   1CD0 AF              xor a
7112   1CD1             
7113   1CD1             ; SIGN-TO-C
7114   1CD1             l1cd1h:
7115   1CD1 23              inc hl
7116   1CD2 AE              xor (hl)
7117   1CD3 2B              dec hl
7118   1CD4 07              rlca
7119   1CD5             
7120   1CD5             ; -----------
7121   1CD5             ; Zero or one
7122   1CD5             ; -----------
7123   1CD5             
7124   1CD5             ; FP-0/1
7125   1CD5             sub_1cd5h:
7126   1CD5 E5              push hl
7127   1CD6 06 05           ld b,005h
7128   1CD8             
7129   1CD8             ; FP-loop
7130   1CD8             l1cd8h:
7131   1CD8 36 00           ld (hl),000h
7132   1CDA 23              inc hl
7133   1CDB 10 FB           djnz l1cd8h
7134   1CDD E1              pop hl
7135   1CDE D0              ret nc
7136   1CDF 36 81           ld (hl),081h
7137   1CE1 C9              ret
7138   1CE2             
7139   1CE2             
7140   1CE2             ; -----------------------
7141   1CE2             ; Handle OR operator (07)
7142   1CE2             ; -----------------------
7143   1CE2             
7144   1CE2             ; or
7145   1CE2             sub_1ce2h:
7146   1CE2 1A              ld a,(de)
7147   1CE3 A7              and a
7148   1CE4 C8              ret z
7149   1CE5 37              scf
7150   1CE6 18 ED           jr sub_1cd5h
7151   1CE8             
7152   1CE8             
7153   1CE8             ; -----------------------------
7154   1CE8             ; Handle number AND number (08)
7155   1CE8             ; -----------------------------
7156   1CE8             
7157   1CE8             ; no-&-no
7158   1CE8             sub_1ce8h:
7159   1CE8 1A              ld a,(de)
7160   1CE9 A7              and a
7161   1CEA C0              ret nz
7162   1CEB 18 E8           jr sub_1cd5h
7163   1CED             
7164   1CED             ; -----------------------------
7165   1CED             ; Handle string AND number (10)
7166   1CED             ; -----------------------------
7167   1CED             
7168   1CED             ; str-&-no
7169   1CED             sub_1cedh:
7170   1CED 1A              ld a,(de)
7171   1CEE A7              and a
7172   1CEF C0              ret nz
7173   1CF0 D5              push de
7174   1CF1 1B              dec de
7175   1CF2 AF              xor a
7176   1CF3 12              ld (de),a
7177   1CF4 1B              dec de
7178   1CF5 12              ld (de),a
7179   1CF6 D1              pop de
7180   1CF7 C9              ret
7181   1CF8             
7182   1CF8             ; -------------------------------------
7183   1CF8             ; Perform comparison ($09-$0E, $11-$16)
7184   1CF8             ; -------------------------------------
7185   1CF8             
7186   1CF8             ; no-l-eql,etc.
7187   1CF8             sub_1cf8h:
7188   1CF8 78              ld a,b
7189   1CF9 D6 08           sub 008h
7190   1CFB CB 57           bit 2,a
7191   1CFD 20 01           jr nz,l1d00h
7192   1CFF 3D              dec a
7193   1D00             
7194   1D00             ; EX-OR-NOT
7195   1D00             l1d00h:
7196   1D00 0F              rrca
7197   1D01 30 08           jr nc,l1d0bh
7198   1D03 F5              push af
7199   1D04 E5              push hl
7200   1D05 CD 67 1C        call sub_1c67h
7201   1D08 D1              pop de
7202   1D09 EB              ex de,hl
7203   1D0A F1              pop af
7204   1D0B             
7205   1D0B             ; NU-OR-STR
7206   1D0B             l1d0bh:
7207   1D0B CB 57           bit 2,a
7208   1D0D 20 07           jr nz,l1d16h
7209   1D0F 0F              rrca
7210   1D10 F5              push af
7211   1D11 CD 43 19        call sub_1943h
7212   1D14 18 33           jr l1d49h
7213   1D16             
7214   1D16             ; STRINGS
7215   1D16             l1d16h:
7216   1D16 0F              rrca
7217   1D17 F5              push af
7218   1D18 CD ED 15        call sub_15edh          ; routine STK-FETCH
7219   1D1B D5              push de
7220   1D1C C5              push bc
7221   1D1D CD ED 15        call sub_15edh          ; routine STK-FETCH
7222   1D20 E1              pop hl
7223   1D21             
7224   1D21             ; BYTE-COMP
7225   1D21             l1d21h:
7226   1D21 7C              ld a,h
7227   1D22 B5              or l
7228   1D23 E3              ex (sp),hl
7229   1D24 78              ld a,b
7230   1D25 20 0B           jr nz,l1d32h
7231   1D27 B1              or c
7232   1D28             
7233   1D28             ; SECND-LOW
7234   1D28             l1d28h:
7235   1D28 C1              pop bc
7236   1D29 28 04           jr z,l1d2fh
7237   1D2B F1              pop af
7238   1D2C 3F              ccf
7239   1D2D 18 16           jr l1d45h
7240   1D2F             
7241   1D2F             ; BOTH-NULL
7242   1D2F             l1d2fh:
7243   1D2F F1              pop af
7244   1D30 18 13           jr l1d45h
7245   1D32             
7246   1D32             ; SEC-PLUS
7247   1D32             l1d32h:
7248   1D32 B1              or c
7249   1D33 28 0D           jr z,l1d42h
7250   1D35 1A              ld a,(de)
7251   1D36 96              sub (hl)
7252   1D37 38 09           jr c,l1d42h
7253   1D39 20 ED           jr nz,l1d28h
7254   1D3B 0B              dec bc
7255   1D3C 13              inc de
7256   1D3D 23              inc hl
7257   1D3E E3              ex (sp),hl
7258   1D3F 2B              dec hl
7259   1D40 18 DF           jr l1d21h
7260   1D42             
7261   1D42             ; FRST-LESS
7262   1D42             l1d42h:
7263   1D42 C1              pop bc
7264   1D43 F1              pop af
7265   1D44 A7              and a
7266   1D45             
7267   1D45             ; STR-TEST
7268   1D45             l1d45h:
7269   1D45 F5              push af
7270   1D46 EF              rst 28h                 ; FP-CALC
7271   1D47 A0              .byte    $A0            ;;stk-zero      an initial false value.
7272   1D48 34              .byte    $34            ;;end-calc
7273   1D49             
7274   1D49             ; END-TESTS
7275   1D49             l1d49h:
7276   1D49 F1              pop af
7277   1D4A F5              push af
7278   1D4B DC CA 1C        call c,sub_1ccah
7279   1D4E CD C3 1C        call sub_1cc3h
7280   1D51 F1              pop af
7281   1D52 0F              rrca
7282   1D53 D4 CA 1C        call nc,sub_1ccah
7283   1D56 C9              ret
7284   1D57             
7285   1D57             ; -------------------------
7286   1D57             ; String concatenation ($17)
7287   1D57             ; -------------------------
7288   1D57             
7289   1D57             ; strs-add
7290   1D57             sub_1d57h:
7291   1D57 CD ED 15        call sub_15edh          ; routine STK-FETCH
7292   1D5A D5              push de
7293   1D5B C5              push bc
7294   1D5C CD ED 15        call sub_15edh          ; routine STK-FETCH
7295   1D5F E1              pop hl
7296   1D60 E5              push hl
7297   1D61 D5              push de
7298   1D62 C5              push bc
7299   1D63 09              add hl,bc
7300   1D64 44              ld b,h
7301   1D65 4D              ld c,l
7302   1D66 F7              rst 30h
7303   1D67 CD B8 14        call sub_14b8h
7304   1D6A C1              pop bc
7305   1D6B E1              pop hl
7306   1D6C 78              ld a,b
7307   1D6D B1              or c
7308   1D6E 28 02           jr z,l1d72h
7309   1D70 ED B0           ldir
7310   1D72             
7311   1D72             ; OTHER-STR
7312   1D72             l1d72h:
7313   1D72 C1              pop bc
7314   1D73 E1              pop hl
7315   1D74 78              ld a,b
7316   1D75 B1              or c
7317   1D76 28 02           jr z,sub_1d7ah
7318   1D78 ED B0           ldir
7319   1D7A             
7320   1D7A             ; --------------------
7321   1D7A             ; Check stack pointers
7322   1D7A             ; --------------------
7323   1D7A             
7324   1D7A             ; STK-PNTRS
7325   1D7A             sub_1d7ah:
7326   1D7A 2A 1C 40        ld hl,(0401ch)
7327   1D7D 11 FB FF        ld de,0fffbh
7328   1D80 E5              push hl
7329   1D81 19              add hl,de
7330   1D82 D1              pop de
7331   1D83 C9              ret
7332   1D84             
7333   1D84             ; ----------------
7334   1D84             ; Handle CHR$ (2B)
7335   1D84             ; ----------------
7336   1D84             
7337   1D84             ; chrs
7338   1D84             sub_1d84h:
7339   1D84 CD 83 10        call sub_1083h          ; modified from ZX81 to inline REPORT-Bd
7340   1D87 F5              push af
7341   1D88 01 01 00        ld bc,l0000h+1
7342   1D8B F7              rst 30h
7343   1D8C F1              pop af
7344   1D8D 12              ld (de),a
7345   1D8E CD B8 14        call sub_14b8h
7346   1D91 EB              ex de,hl
7347   1D92 C9              ret
7348   1D93             
7349   1D93             ; ----------------
7350   1D93             ; Handle VAL ($1A)
7351   1D93             ; ----------------
7352   1D93             
7353   1D93             ; val
7354   1D93             sub_1d93h:
7355   1D93 2A 16 40        ld hl,(04016h)          ; CH.ADD - Address of next character to interpret
7356   1D96 E5              push hl
7357   1D97 CD ED 15        call sub_15edh          ; routine STK-FETCH
7358   1D9A D5              push de
7359   1D9B 03              inc bc
7360   1D9C F7              rst 30h
7361   1D9D E1              pop hl
7362   1D9E ED 53 16 40     ld (04016h),de          ; CH.ADD
7363   1DA2 D5              push de
7364   1DA3 ED B0           ldir
7365   1DA5 EB              ex de,hl
7366   1DA6 2B              dec hl
7367   1DA7 36 76           ld (hl),076h
7368   1DA9 FD CB 01 BE     res 7,(iy+001h)
7369   1DAD CD 0F 0F        call sub_0f0fh
7370   1DB0 CD 9F 0E        call l0e9fh
7371   1DB3 E1              pop hl
7372   1DB4 22 16 40        ld (04016h),hl          ; CH.ADD
7373   1DB7 FD CB 01 FE     set 7,(iy+001h)
7374   1DBB CD 4A 11        call sub_114ah          ; routine SCANNING
7375   1DBE E1              pop hl
7376   1DBF 22 16 40        ld (04016h),hl          ; CH.ADD
7377   1DC2 18 B6           jr sub_1d7ah
7378   1DC4             
7379   1DC4             ; ----------------
7380   1DC4             ; Handle STR$ (2A)
7381   1DC4             ; ----------------
7382   1DC4             
7383   1DC4             ; str$
7384   1DC4             sub_1dc4h:
7385   1DC4 01 01 00        ld bc,l0000h+1
7386   1DC7 F7              rst 30h
7387   1DC8 36 76           ld (hl),076h
7388   1DCA 2A 39 40        ld hl,(04039h)
7389   1DCD E5              push hl
7390   1DCE 2E FF           ld l,0ffh
7391   1DD0 22 39 40        ld (04039h),hl
7392   1DD3 2A 0E 40        ld hl,(0400eh)
7393   1DD6 E5              push hl
7394   1DD7 ED 53 0E 40     ld (0400eh),de
7395   1DDB D5              push de
7396   1DDC CD D3 17        call l17d3h
7397   1DDF D1              pop de
7398   1DE0 2A 0E 40        ld hl,(0400eh)
7399   1DE3 A7              and a
7400   1DE4 ED 52           sbc hl,de
7401   1DE6 44              ld b,h
7402   1DE7 4D              ld c,l
7403   1DE8 E1              pop hl
7404   1DE9 22 0E 40        ld (0400eh),hl
7405   1DEC E1              pop hl
7406   1DED 22 39 40        ld (04039h),hl
7407   1DF0 CD B8 14        call sub_14b8h
7408   1DF3 EB              ex de,hl
7409   1DF4 C9              ret
7410   1DF5             
7411   1DF5             ; ------------------------
7412   1DF5             ; THE 'CODE' FUNCTION (19)
7413   1DF5             ; ------------------------
7414   1DF5             
7415   1DF5             ; code
7416   1DF5             sub_1df5h:
7417   1DF5 CD ED 15        call sub_15edh          ; routine STK-FETCH
7418   1DF8 78              ld a,b
7419   1DF9 B1              or c
7420   1DFA 28 01           jr z,l1dfdh
7421   1DFC 1A              ld a,(de)
7422   1DFD             
7423   1DFD             ; STK-CODE
7424   1DFD             l1dfdh:
7425   1DFD C3 15 17        jp sub_1715h
7426   1E00             
7427   1E00             ; -------------------------
7428   1E00             ; THE 'LEN' SUBROUTINE (1B)
7429   1E00             ; -------------------------
7430   1E00             
7431   1E00             ; len
7432   1E00             sub_1e00h:
7433   1E00 CD ED 15        call sub_15edh          ; routine STK-FETCH
7434   1E03 C3 18 17        jp sub_1718h
7435   1E06             
7436   1E06             ; ------------------------------------------
7437   1E06             ; THE 'DECREASE THE COUNTER' SUBROUTINE (31)
7438   1E06             ; ------------------------------------------
7439   1E06             
7440   1E06             ; dec-jr-nz
7441   1E06             sub_1e06h:
7442   1E06 D9              exx
7443   1E07 E5              push hl
7444   1E08 21 1E 40        ld hl,0401eh
7445   1E0B 35              dec (hl)
7446   1E0C E1              pop hl
7447   1E0D 20 04           jr nz,l1e13h
7448   1E0F 23              inc hl
7449   1E10 D9              exx
7450   1E11 C9              ret
7451   1E12             
7452   1E12             ; --------------------------
7453   1E12             ; THE 'JUMP' SUBROUTINE (2F)
7454   1E12             ; --------------------------
7455   1E12             
7456   1E12             ; jump
7457   1E12             sub_1e12h:
7458   1E12             l1e12h:
7459   1E12 D9              exx
7460   1E13             
7461   1E13             ; JUMP-2
7462   1E13             l1e13h:
7463   1E13 5E              ld e,(hl)
7464   1E14 AF              xor a
7465   1E15 CB 7B           bit 7,e
7466   1E17 28 01           jr z,l1e1ah
7467   1E19 2F              cpl
7468   1E1A             
7469   1E1A             ; JUMP-3
7470   1E1A             l1e1ah:
7471   1E1A 57              ld d,a
7472   1E1B 19              add hl,de
7473   1E1C D9              exx
7474   1E1D C9              ret
7475   1E1E             
7476   1E1E             ; ----------------------------------
7477   1E1E             ; THE 'JUMP ON TRUE' SUBROUTINE (00)
7478   1E1E             ; ----------------------------------
7479   1E1E             
7480   1E1E             ; jump-true
7481   1E1E             sub_1e1eh:
7482   1E1E 1A              ld a,(de)
7483   1E1F A7              and a
7484   1E20 20 F0           jr nz,l1e12h
7485   1E22 D9              exx
7486   1E23 23              inc hl
7487   1E24 D9              exx
7488   1E25 C9              ret
7489   1E26             
7490   1E26             ; -----------------------------
7491   1E26             ; THE 'MODULUS' SUBROUTINE (2E)
7492   1E26             ; -----------------------------
7493   1E26             
7494   1E26             ; n-mod-m
7495   1E26             sub_1e26h:
7496   1E26 EF              rst 28h                 ; FP_CALC
7497   1E27 C0              .byte    $C0            ;;st-mem-0          17, 3.
7498   1E28 02              .byte    $02            ;;delete            17.
7499   1E29 2D              .byte    $2D            ;;duplicate         17, 17.
7500   1E2A E0              .byte    $E0            ;;get-mem-0         17, 17, 3.
7501   1E2B 05              .byte    $05            ;;division          17, 17/3.
7502   1E2C 24              .byte    $24            ;;int               17, 5.
7503   1E2D E0              .byte    $E0            ;;get-mem-0         17, 5, 3.
7504   1E2E 01              .byte    $01            ;;exchange          17, 3, 5.
7505   1E2F C0              .byte    $C0            ;;st-mem-0          17, 3, 5.
7506   1E30 04              .byte    $04            ;;multiply          17, 15.
7507   1E31 03              .byte    $03            ;;subtract          2.
7508   1E32 E0              .byte    $E0            ;;get-mem-0         2, 5.
7509   1E33 34              .byte    $34            ;;end-calc          2, 5.
7510   1E34 C9              ret
7511   1E35             
7512   1E35             ; ---------------------------
7513   1E35             ; THE 'INTEGER' FUNCTION (24)
7514   1E35             ; ---------------------------
7515   1E35             
7516   1E35             ; int
7517   1E35             sub_1e35h:
7518   1E35 EF              rst 28h                 ; FP-CALC              x.    (= 3.4 or -3.4).
7519   1E36 2D              .byte    $2D            ;;duplicate             x, x.
7520   1E37 32              .byte    $32            ;;less-0                x, (1/0)
7521   1E38 00              .byte    $00            ;;jump-true             x, (1/0)
7522   1E39 04              .byte    $04            ;;to L1C46, X-NEG
7523   1E3A             
7524   1E3A 36              .byte    $36            ;;truncate              trunc 3.4 = 3.
7525   1E3B 34              .byte    $34            ;;end-calc              3.
7526   1E3C C9              ret
7527   1E3D             
7528   1E3D             ; X-NEG
7529   1E3D 2D              .byte    $2D            ;;duplicate             -3.4, -3.4.
7530   1E3E 36              .byte    $36            ;;truncate              -3.4, -3.
7531   1E3F C0              .byte    $C0            ;;st-mem-0              -3.4, -3.
7532   1E40 03              .byte    $03            ;;subtract              -.4
7533   1E41 E0              .byte    $E0            ;;get-mem-0             -.4, -3.
7534   1E42 01              .byte    $01            ;;exchange              -3, -.4.
7535   1E43 2C              .byte    $2C            ;;not                   -3, (0).
7536   1E44 00              .byte    $00            ;;jump-true             -3.
7537   1E45 03              .byte    $03            ;;to L1C59, EXIT        -3.
7538   1E46             
7539   1E46 A1              .byte    $A1            ;;stk-one               -3, 1.
7540   1E47 03              .byte    $03            ;;subtract              -4.
7541   1E48             
7542   1E48             ;; EXIT
7543   1E48 34              .byte    $34            ;;end-calc              -4.
7544   1E49 C9              ret
7545   1E4A             
7546   1E4A             ; ----------------
7547   1E4A             ; Exponential (23)
7548   1E4A             ; ----------------
7549   1E4A             ; EXP
7550   1E4A             sub_1e4ah:
7551   1E4A             l1e4ah:
7552   1E4A EF              rst 28h
7553   1E4B 30              .byte    $30            ;;stk-data
7554   1E4C F1              .byte    $F1            ;;Exponent: $81, Bytes: 4
7555   1E4D 38 AA 3B 29     .byte    $38,$AA,$3B,$29
7556   1E51 04              .byte    $04            ;;multiply
7557   1E52 2D              .byte    $2D            ;;duplicate
7558   1E53 24              .byte    $24            ;;int
7559   1E54 C3              .byte    $C3            ;;st-mem-3
7560   1E55 03              .byte    $03            ;;subtract
7561   1E56 2D              .byte    $2D            ;;duplicate
7562   1E57 0F              .byte    $0F            ;;addition
7563   1E58 A1              .byte    $A1            ;;stk-one
7564   1E59 03              .byte    $03            ;;subtract
7565   1E5A 88              .byte    $88            ;;series-08
7566   1E5B 13              .byte    $13            ;;Exponent: $63, Bytes: 1
7567   1E5C 36              .byte    $36            ;;(+00,+00,+00)
7568   1E5D 58              .byte    $58            ;;Exponent: $68, Bytes: 2
7569   1E5E 65 66           .byte    $65,$66        ;;(+00,+00)
7570   1E60 9D              .byte    $9D            ;;Exponent: $6D, Bytes: 3
7571   1E61 78 65 40        .byte    $78,$65,$40    ;;(+00)
7572   1E64 A2              .byte    $A2            ;;Exponent: $72, Bytes: 3
7573   1E65 60 32 C9        .byte    $60,$32,$C9    ;;(+00)
7574   1E68 E7              .byte    $E7            ;;Exponent: $77, Bytes: 4
7575   1E69 21 F7 AF 24     .byte    $21,$F7,$AF,$24
7576   1E6D EB              .byte    $EB            ;;Exponent: $7B, Bytes: 4
7577   1E6E 2F B0 B0 14     .byte    $2F,$B0,$B0,$14
7578   1E72 EE              .byte    $EE            ;;Exponent: $7E, Bytes: 4
7579   1E73 7E BB 94 58     .byte    $7E,$BB,$94,$58
7580   1E77 F1              .byte    $F1            ;;Exponent: $81, Bytes: 4
7581   1E78 3A 7E F8 CF     .byte    $3A,$7E,$F8,$CF
7582   1E7C E3              .byte    $E3            ;;get-mem-3
7583   1E7D 34              .byte    $34            ;;end-calc
7584   1E7E             
7585   1E7E CD C5 17        call sub_17c5h
7586   1E81 20 07           jr nz,l1e8ah
7587   1E83 38 03           jr c,l1e88h
7588   1E85 86              add a,(hl)
7589   1E86 30 09           jr nc,l1e91h
7590   1E88             
7591   1E88             ; REPORT-6b
7592   1E88             l1e88h:
7593   1E88 CF              rst 08h                 ; ERROR-1
7594   1E89 05              .byte    $05            ; OV arithmetic OVerflow
7595   1E8A             
7596   1E8A             ; N-NEGTV
7597   1E8A             l1e8ah:
7598   1E8A 38 07           jr c,l1e93h
7599   1E8C 96              sub (hl)
7600   1E8D 30 04           jr nc,l1e93h
7601   1E8F ED 44           neg
7602   1E91             
7603   1E91             ; RESULT-OK
7604   1E91             l1e91h:
7605   1E91 77              ld (hl),a
7606   1E92 C9              ret
7607   1E93             
7608   1E93             ; RSLT-ZERO
7609   1E93             l1e93h:
7610   1E93 EF              rst 28h                 ; FP-CALC
7611   1E94 02              .byte    $02            ;;delete
7612   1E95 A0              .byte    $A0            ;;stk-zero
7613   1E96 34              .byte    $34            ;;end-calc
7614   1E97 C9              ret
7615   1E98             
7616   1E98             
7617   1E98             ; -------------------------------------
7618   1E98             ; THE 'NATURAL LOGARITHM' FUNCTION (22)
7619   1E98             ; -------------------------------------
7620   1E98             
7621   1E98             ; ln
7622   1E98             sub_1e98h:
7623   1E98 EF              rst 28h                 ; FP-CALC
7624   1E99 2D              .byte    $2D            ;;duplicate
7625   1E9A 33              .byte    $33            ;;greater-0
7626   1E9B 00              .byte    $00            ;;jump-true
7627   1E9C 04              .byte    $04            ;;to L1CB1, VALID
7628   1E9D 34              .byte    $34            ;;end-calc
7629   1E9E             
7630   1E9E             ; REPORT-Ab
7631   1E9E CF              rst 08h                 ; ERROR-1
7632   1E9F 09              .byte    $09            ; AG invalid ArGument
7633   1EA0             
7634   1EA0             ; VALID
7635   1EA0 A0              .byte    $A0            ;;stk-zero              Note. not
7636   1EA1 02              .byte    $02            ;;delete                necessary.
7637   1EA2 34              .byte    $34            ;;end-calc
7638   1EA3 7E              ld a,(hl)
7639   1EA4 36 80           ld (hl),080h
7640   1EA6 CD 15 17        call sub_1715h
7641   1EA9 EF              rst 28h                 ; FP-CALC
7642   1EAA 30              .byte    $30            ;;stk-data
7643   1EAB 38              .byte    $38            ;;Exponent: $88, Bytes: 1
7644   1EAC 00              .byte    $00            ;;(+00,+00,+00)
7645   1EAD 03              .byte    $03            ;;subtract
7646   1EAE 01              .byte    $01            ;;exchange
7647   1EAF 2D              .byte    $2D            ;;duplicate
7648   1EB0 30              .byte    $30            ;;stk-data
7649   1EB1 F0              .byte    $F0            ;;Exponent: $80, Bytes: 4
7650   1EB2 4C CC CC CD     .byte    $4C,$CC,$CC,$CD
7651   1EB6 03              .byte    $03            ;;subtract
7652   1EB7 33              .byte    $33            ;;greater-0
7653   1EB8 00              .byte    $00            ;;jump-true
7654   1EB9 08              .byte    $08            ;;to L1CD2, GRE.8
7655   1EBA             
7656   1EBA 01              .byte    $01            ;;exchange
7657   1EBB A1              .byte    $A1            ;;stk-one
7658   1EBC 03              .byte    $03            ;;subtract
7659   1EBD 01              .byte    $01            ;;exchange
7660   1EBE 34              .byte    $34            ;;end-calc
7661   1EBF 34              inc (hl)
7662   1EC0             
7663   1EC0 EF              rst 28h                 ; FP-CALC
7664   1EC1             
7665   1EC1             ;; GRE.8
7666   1EC1 01              .byte    $01            ;;exchange
7667   1EC2 30              .byte    $30            ;;stk-data
7668   1EC3 F0              .byte    $F0            ;;Exponent: $80, Bytes: 4
7669   1EC4 31 72 17 F8     .byte    $31,$72,$17,$F8
7670   1EC8 04              .byte    $04            ;;multiply
7671   1EC9 01              .byte    $01            ;;exchange
7672   1ECA A2              .byte    $A2            ;;stk-half
7673   1ECB 03              .byte    $03            ;;subtract
7674   1ECC A2              .byte    $A2            ;;stk-half
7675   1ECD 03              .byte    $03            ;;subtract
7676   1ECE 2D              .byte    $2D            ;;duplicate
7677   1ECF 30              .byte    $30            ;;stk-data
7678   1ED0 32              .byte    $32            ;;Exponent: $82, Bytes: 1
7679   1ED1 20              .byte    $20            ;;(+00,+00,+00)
7680   1ED2 04              .byte    $04            ;;multiply
7681   1ED3 A2              .byte    $A2            ;;stk-half
7682   1ED4 03              .byte    $03            ;;subtract
7683   1ED5 8C              .byte    $8C            ;;series-0C
7684   1ED6 11              .byte    $11            ;;Exponent: $61, Bytes: 1
7685   1ED7 AC              .byte    $AC            ;;(+00,+00,+00)
7686   1ED8 14              .byte    $14            ;;Exponent: $64, Bytes: 1
7687   1ED9 09              .byte    $09            ;;(+00,+00,+00)
7688   1EDA 56              .byte    $56            ;;Exponent: $66, Bytes: 2
7689   1EDB DA A5           .byte    $DA,$A5        ;;(+00,+00)
7690   1EDD 59              .byte    $59            ;;Exponent: $69, Bytes: 2
7691   1EDE 30 C5           .byte    $30,$C5        ;;(+00,+00)
7692   1EE0 5C              .byte    $5C            ;;Exponent: $6C, Bytes: 2
7693   1EE1 90 AA           .byte    $90,$AA        ;;(+00,+00)
7694   1EE3 9E              .byte    $9E            ;;Exponent: $6E, Bytes: 3
7695   1EE4 70 6F 61        .byte    $70,$6F,$61    ;;(+00)
7696   1EE7 A1              .byte    $A1            ;;Exponent: $71, Bytes: 3
7697   1EE8 CB DA 96        .byte    $CB,$DA,$96    ;;(+00)
7698   1EEB A4              .byte    $A4            ;;Exponent: $74, Bytes: 3
7699   1EEC 31 9F B4        .byte    $31,$9F,$B4    ;;(+00)
7700   1EEF E7              .byte    $E7            ;;Exponent: $77, Bytes: 4
7701   1EF0 A0 FE 5C FC     .byte    $A0,$FE,$5C,$FC
7702   1EF4 EA              .byte    $EA            ;;Exponent: $7A, Bytes: 4
7703   1EF5 1B 43 CA 36     .byte    $1B,$43,$CA,$36
7704   1EF9 ED              .byte    $ED            ;;Exponent: $7D, Bytes: 4
7705   1EFA A7 9C 7E 5E     .byte    $A7,$9C,$7E,$5E
7706   1EFE F0              .byte    $F0            ;;Exponent: $80, Bytes: 4
7707   1EFF 6E 23 80 93     .byte    $6E,$23,$80,$93
7708   1F03 04              .byte    $04            ;;multiply
7709   1F04 0F              .byte    $0F            ;;addition
7710   1F05 34              .byte    $34            ;;end-calc
7711   1F06 C9              ret
7712   1F07             
7713   1F07             
7714   1F07             ; -----------------------------
7715   1F07             ; THE 'TRIGONOMETRIC' FUNCTIONS
7716   1F07             ; -----------------------------
7717   1F07             
7718   1F07             ;----- --------------------------------
7719   1F07             ; THE 'REDUCE ARGUMENT' SUBROUTINE (35)
7720   1F07             ; -------------------------------------
7721   1F07             
7722   1F07             ; get-argt
7723   1F07             sub_1f07h:
7724   1F07 EF              rst 28h                 ; FP-CALC         X.
7725   1F08 30              .byte    $30            ;;stk-data
7726   1F09 EE              .byte    $EE            ;;Exponent: $7E,
7727   1F0A                                         ;;Bytes: 4
7728   1F0A 22 F9 83 6E     .byte    $22,$F9,$83,$6E                ;  X, 1/(2*PI)
7729   1F0E 04              .byte    $04            ;;multiply         X/(2*PI) = fraction
7730   1F0F             
7731   1F0F 2D              .byte    $2D            ;;duplicate
7732   1F10 A2              .byte    $A2            ;;stk-half
7733   1F11 0F              .byte    $0F            ;;addition
7734   1F12 24              .byte    $24            ;;int
7735   1F13             
7736   1F13 03              .byte    $03            ;;subtract         now range -.5 to .5
7737   1F14             
7738   1F14 2D              .byte    $2D            ;;duplicate
7739   1F15 0F              .byte    $0F            ;;addition         now range -1 to 1.
7740   1F16 2D              .byte    $2D            ;;duplicate
7741   1F17 0F              .byte    $0F            ;;addition         now range -2 to 2.
7742   1F18             
7743   1F18 2D              .byte    $2D            ;;duplicate        Y, Y.
7744   1F19 27              .byte    $27            ;;abs              Y, abs(Y).    range 1 to 2
7745   1F1A A1              .byte    $A1            ;;stk-one          Y, abs(Y), 1.
7746   1F1B 03              .byte    $03            ;;subtract         Y, abs(Y)-1.  range 0 to 1
7747   1F1C 2D              .byte    $2D            ;;duplicate        Y, Z, Z.
7748   1F1D 33              .byte    $33            ;;greater-0        Y, Z, (1/0).
7749   1F1E             
7750   1F1E C0              .byte    $C0            ;;st-mem-0         store as possible sign for cosine function.
7751   1F1F             
7752   1F1F 00              .byte    $00            ;;jump-true
7753   1F20 04              .byte    $04            ;;to L1D35, ZPLUS  with quadrants II and III
7754   1F21             
7755   1F21 02              .byte    $02            ;;delete          Y    delete test value.
7756   1F22 34              .byte    $34            ;;end-calc        Y.
7757   1F23             
7758   1F23 C9              ret
7759   1F24             
7760   1F24             ; ZPLUS
7761   1F24 A1              .byte    $A1            ;;stk-one         Y, Z, 1
7762   1F25 03              .byte    $03            ;;subtract        Y, Z-1.       Q3 = 0 to -1
7763   1F26 01              .byte    $01            ;;exchange        Z-1, Y.
7764   1F27 32              .byte    $32            ;;less-0          Z-1, (1/0).
7765   1F28 00              .byte    $00            ;;jump-true       Z-1.
7766   1F29 02              .byte    $02            ;;to L1D3C, YNEG
7767   1F2A 18              .byte    $18            ;;negate          range +1 to 0
7768   1F2B             ;; YNEG
7769   1F2B 34              .byte    $34            ;;end-calc        quadrants II and III correct.
7770   1F2C C9              ret
7771   1F2D             
7772   1F2D             
7773   1F2D             ; --------------------------
7774   1F2D             ; THE 'COSINE' FUNCTION (1D)
7775   1F2D             ; --------------------------
7776   1F2D             
7777   1F2D             ; cos
7778   1F2D             sub_1f2dh:
7779   1F2D EF              rst 28h                 ; FP-CALC              angle in radians.
7780   1F2E 35              .byte    $35            ;;get-argt              X       reduce -1 to +1
7781   1F2F 27              .byte    $27            ;;abs                   ABS X   0 to 1
7782   1F30 A1              .byte    $A1            ;;stk-one               ABS X, 1.
7783   1F31 03              .byte    $03            ;;subtract              now opposite angle
7784   1F32                                         ;;                      though negative sign.
7785   1F32 E0              .byte    $E0            ;;get-mem-0             fetch sign indicator.
7786   1F33 00              .byte    $00            ;;jump-true
7787   1F34 06              .byte    $06            ;;fwd to L1D4B, C-ENT
7788   1F35                                         ;;forward to common code if in QII or QIII
7789   1F35 18              .byte    $18            ;;negate                else make positive.
7790   1F36 2F              .byte    $2F            ;;jump
7791   1F37 03              .byte    $03            ;;fwd to L1D4B, C-ENT
7792   1F38                                         ;;with quadrants QI and QIV
7793   1F38             
7794   1F38             ; ------------------------
7795   1F38             ; THE 'SINE' FUNCTION (1C)
7796   1F38             ; ------------------------
7797   1F38             
7798   1F38             ; sin
7799   1F38             sub_1f38h:
7800   1F38 EF              rst 28h                 ; FP-CALC      angle in radians
7801   1F39 35              .byte    $35            ;;get-argt      reduce - sign now correct.
7802   1F3A             
7803   1F3A             ;; C-ENT
7804   1F3A 2D              .byte    $2D            ;;duplicate
7805   1F3B 2D              .byte    $2D            ;;duplicate
7806   1F3C 04              .byte    $04            ;;multiply
7807   1F3D 2D              .byte    $2D            ;;duplicate
7808   1F3E 0F              .byte    $0F            ;;addition
7809   1F3F A1              .byte    $A1            ;;stk-one
7810   1F40 03              .byte    $03            ;;subtract
7811   1F41             
7812   1F41 86              .byte    $86            ;;series-06
7813   1F42 14              .byte    $14            ;;Exponent: $64, Bytes: 1
7814   1F43 E6              .byte    $E6            ;;(+00,+00,+00)
7815   1F44 5C              .byte    $5C            ;;Exponent: $6C, Bytes: 2
7816   1F45 1F 0B           .byte    $1F,$0B        ;;(+00,+00)
7817   1F47 A3              .byte    $A3            ;;Exponent: $73, Bytes: 3
7818   1F48 8F 38 EE        .byte    $8F,$38,$EE    ;;(+00)
7819   1F4B E9              .byte    $E9            ;;Exponent: $79, Bytes: 4
7820   1F4C 15 63 BB 23     .byte    $15,$63,$BB,$23
7821   1F50 EE              .byte    $EE            ;;Exponent: $7E, Bytes: 4
7822   1F51 92 0D CD ED     .byte    $92,$0D,$CD,$ED
7823   1F55 F1              .byte    $F1            ;;Exponent: $81, Bytes: 4
7824   1F56 23 5D 1B EA     .byte    $23,$5D,$1B,$EA
7825   1F5A             
7826   1F5A 04              .byte    $04            ;;multiply
7827   1F5B 34              .byte    $34            ;;end-calc
7828   1F5C C9              ret
7829   1F5D             
7830   1F5D             ; ---------------------------
7831   1F5D             ; THE 'TANGENT' FUNCTION (1E)
7832   1F5D             ; ---------------------------
7833   1F5D             
7834   1F5D             ;; tan
7835   1F5D             sub_1f5dh:
7836   1F5D EF              rst 28h                 ; FP-CALC          x.
7837   1F5E 2D              .byte    $2D            ;;duplicate         x, x.
7838   1F5F 1C              .byte    $1C            ;;sin               x, sin x.
7839   1F60 01              .byte    $01            ;;exchange          sin x, x.
7840   1F61 1D              .byte    $1D            ;;cos               sin x, cos x.
7841   1F62 05              .byte    $05            ;;division          sin x/cos x (= tan x).
7842   1F63 34              .byte    $34            ;;end-calc          tan x.
7843   1F64 C9              ret
7844   1F65             
7845   1F65             ; --------------------------
7846   1F65             ; THE 'ARCTAN' FUNCTION (21)
7847   1F65             ; --------------------------
7848   1F65             
7849   1F65             ; atn
7850   1F65             sub_1f65h:
7851   1F65 7E              ld a,(hl)
7852   1F66 FE 81           cp 081h
7853   1F68 38 0E           jr c,l1f78h
7854   1F6A EF              rst 28h                 ; FP-CALC      X.
7855   1F6B A1              .byte    $A1            ;;stk-one
7856   1F6C 18              .byte    $18            ;;negate
7857   1F6D 01              .byte    $01            ;;exchange
7858   1F6E 05              .byte    $05            ;;division
7859   1F6F 2D              .byte    $2D            ;;duplicate
7860   1F70 32              .byte    $32            ;;less-0
7861   1F71 A3              .byte    $A3            ;;stk-pi/2
7862   1F72 01              .byte    $01            ;;exchange
7863   1F73 00              .byte    $00            ;;jump-true
7864   1F74 06              .byte    $06            ;;to L1D8B, CASES
7865   1F75             
7866   1F75 18              .byte    $18            ;;negate
7867   1F76 2F              .byte    $2F            ;;jump
7868   1F77 03              .byte    $03            ;;to L1D8B, CASES
7869   1F78             
7870   1F78             l1f78h:
7871   1F78             ; SMALL
7872   1F78 EF              rst 28h                 ; FP-CALC
7873   1F79 A0              .byte    $A0            ;;stk-zero
7874   1F7A             
7875   1F7A             ;; CASES
7876   1F7A 01              .byte    $01            ;;exchange
7877   1F7B 2D              .byte    $2D            ;;duplicate
7878   1F7C 2D              .byte    $2D            ;;duplicate
7879   1F7D 04              .byte    $04            ;;multiply
7880   1F7E 2D              .byte    $2D            ;;duplicate
7881   1F7F 0F              .byte    $0F            ;;addition
7882   1F80 A1              .byte    $A1            ;;stk-one
7883   1F81 03              .byte    $03            ;;subtract
7884   1F82             
7885   1F82 8C              .byte    $8C            ;;series-0C
7886   1F83 10              .byte    $10            ;;Exponent: $60, Bytes: 1
7887   1F84 B2              .byte    $B2            ;;(+00,+00,+00)
7888   1F85 13              .byte    $13            ;;Exponent: $63, Bytes: 1
7889   1F86 0E              .byte    $0E            ;;(+00,+00,+00)
7890   1F87 55              .byte    $55            ;;Exponent: $65, Bytes: 2
7891   1F88 E4 8D           .byte    $E4,$8D        ;;(+00,+00)
7892   1F8A 58              .byte    $58            ;;Exponent: $68, Bytes: 2
7893   1F8B 39 BC           .byte    $39,$BC        ;;(+00,+00)
7894   1F8D 5B              .byte    $5B            ;;Exponent: $6B, Bytes: 2
7895   1F8E 98 FD           .byte    $98,$FD        ;;(+00,+00)
7896   1F90 9E              .byte    $9E            ;;Exponent: $6E, Bytes: 3
7897   1F91 00 36 75        .byte    $00,$36,$75    ;;(+00)
7898   1F94 A0              .byte    $A0            ;;Exponent: $70, Bytes: 3
7899   1F95 DB E8 B4        .byte    $DB,$E8,$B4    ;;(+00)
7900   1F98 63              .byte    $63            ;;Exponent: $73, Bytes: 2
7901   1F99 42 C4           .byte    $42,$C4        ;;(+00,+00)
7902   1F9B E6              .byte    $E6            ;;Exponent: $76, Bytes: 4
7903   1F9C B5 09 36 BE     .byte    $B5,$09,$36,$BE
7904   1FA0 E9              .byte    $E9            ;;Exponent: $79, Bytes: 4
7905   1FA1 36 73 1B 5D     .byte    $36,$73,$1B,$5D
7906   1FA5 EC              .byte    $EC            ;;Exponent: $7C, Bytes: 4
7907   1FA6 D8 DE 63 BE     .byte    $D8,$DE,$63,$BE
7908   1FAA F0              .byte    $F0            ;;Exponent: $80, Bytes: 4
7909   1FAB 61 A1 B3 0C     .byte    $61,$A1,$B3,$0C
7910   1FAF             
7911   1FAF 04              .byte    $04            ;;multiply
7912   1FB0 0F              .byte    $0F            ;;addition
7913   1FB1 34              .byte    $34            ;;end-calc
7914   1FB2 C9              ret
7915   1FB3             
7916   1FB3             ; --------------------------
7917   1FB3             ; THE 'ARCSIN' FUNCTION (1F)
7918   1FB3             ; --------------------------
7919   1FB3             ;; asn
7920   1FB3             sub_1fb3h:
7921   1FB3 EF              rst 28h                 ; FP-CALC      x.
7922   1FB4 2D              .byte    $2D            ;;duplicate     x, x.
7923   1FB5 2D              .byte    $2D            ;;duplicate     x, x, x.
7924   1FB6 04              .byte    $04            ;;multiply      x, x*x.
7925   1FB7 A1              .byte    $A1            ;;stk-one       x, x*x, 1.
7926   1FB8 03              .byte    $03            ;;subtract      x, x*x-1.
7927   1FB9 18              .byte    $18            ;;negate        x, 1-x*x.
7928   1FBA 25              .byte    $25            ;;sqr           x, sqr(1-x*x) = y.
7929   1FBB A1              .byte    $A1            ;;stk-one       x, y, 1.
7930   1FBC 0F              .byte    $0F            ;;addition      x, y+1.
7931   1FBD 05              .byte    $05            ;;division      x/y+1.
7932   1FBE 21              .byte    $21            ;;atn           a/2     (half the angle)
7933   1FBF 2D              .byte    $2D            ;;duplicate     a/2, a/2.
7934   1FC0 0F              .byte    $0F            ;;addition      a.
7935   1FC1 34              .byte    $34            ;;end-calc      a.
7936   1FC2 C9              ret
7937   1FC3             
7938   1FC3             ; --------------------------
7939   1FC3             ; THE 'ARCCOS' FUNCTION (20)
7940   1FC3             ; --------------------------
7941   1FC3             
7942   1FC3             ;; acs
7943   1FC3             sub_1fc3h:
7944   1FC3 EF              rst 28h                 ; FP-CALC      x.
7945   1FC4 1F              .byte    $1F            ;;asn           asn(x).
7946   1FC5 A3              .byte    $A3            ;;stk-pi/2      asn(x), pi/2.
7947   1FC6 03              .byte    $03            ;;subtract      asn(x) - pi/2.
7948   1FC7 18              .byte    $18            ;;negate        pi/2 - asn(x) = acs(x).
7949   1FC8 34              .byte    $34            ;;end-calc      acs(x)
7950   1FC9 C9              ret
7951   1FCA             
7952   1FCA             ; -------------------------------
7953   1FCA             ; THE 'SQUARE ROOT' FUNCTION (25)
7954   1FCA             ; -------------------------------
7955   1FCA             
7956   1FCA             ; sqr
7957   1FCA             sub_1fcah:
7958   1FCA EF              rst 28h                 ; FP-CALC              x.
7959   1FCB 2D              .byte    $2D            ;;duplicate             x, x.
7960   1FCC 2C              .byte    $2C            ;;not                   x, 1/0
7961   1FCD 00              .byte    $00            ;;jump-true             x, (1/0).
7962   1FCE 1E              .byte    $1E            ;;to L1DFD, LAST        exit if argument zero
7963   1FCF A2              .byte    $A2            ;;stk-half              x, .5.
7964   1FD0 34              .byte    $34            ;;end-calc              x, .5.
7965   1FD1             
7966   1FD1             ; -----------------------------------
7967   1FD1             ; THE 'EXPONENTIATION' OPERATION (06)
7968   1FD1             ; -----------------------------------
7969   1FD1             
7970   1FD1             ; to-power
7971   1FD1             sub_1fd1h:
7972   1FD1 EF              rst 28h                 ; FP-CALC              X,Y.
7973   1FD2 01              .byte    $01            ;;exchange              Y,X.
7974   1FD3 2D              .byte    $2D            ;;duplicate             Y,X,X.
7975   1FD4 2C              .byte    $2C            ;;not                   Y,X,(1/0).
7976   1FD5 00              .byte    $00            ;;jump-true
7977   1FD6 07              .byte    $07            ;;forward to L1DEE, XISO if X is zero.
7978   1FD7             
7979   1FD7             ;   else X is non-zero. function 'ln' will catch a negative value of X.
7980   1FD7             
7981   1FD7 22              .byte    $22            ;;ln                    Y, LN X.
7982   1FD8 04              .byte    $04            ;;multiply              Y * LN X
7983   1FD9 34              .byte    $34            ;;end-calc
7984   1FDA C3 4A 1E        jp l1e4ah
7985   1FDD             
7986   1FDD             ; XISO
7987   1FDD 02              .byte    $02            ;;delete                Y.
7988   1FDE 2D              .byte    $2D            ;;duplicate             Y, Y.
7989   1FDF 2C              .byte    $2C            ;;not                   Y, (1/0).
7990   1FE0 00              .byte    $00            ;;jump-true
7991   1FE1 09              .byte    $09            ;;forward to L1DFB, ONE if Y is zero.
7992   1FE2 A0              .byte    $A0            ;;stk-zero              Y, 0.
7993   1FE3 01              .byte    $01            ;;exchange              0, Y.
7994   1FE4 33              .byte    $33            ;;greater-0             0, (1/0).
7995   1FE5 00              .byte    $00            ;;jump-true             0
7996   1FE6 06              .byte    $06            ;;to L1DFD, LAST        if Y was any positive number.
7997   1FE7 A1              .byte    $A1            ;;stk-one               0, 1.
7998   1FE8 01              .byte    $01            ;;exchange              1, 0.
7999   1FE9 05              .byte    $05            ;;division              1/0    >> error
8000   1FEA             ; ONE
8001   1FEA 02              .byte    $02            ;;delete                .
8002   1FEB A1              .byte    $A1            ;;stk-one               1.
8003   1FEC             
8004   1FEC             ; LAST
8005   1FEC 34              .byte    $34            ;;end-calc              last value 1 or 0.
8006   1FED C9              ret
8007   1FEE             
8008   1FEE             ; ---------------------
8009   1FEE             ; THE 'SPARE LOCATIONS'
8010   1FEE             ; ---------------------
8011   1FEE             
8012   1FEE             ; SPARE
8013   1FEE 00              nop
8014   1FEF 00              nop
8015   1FF0 00              nop
8016   1FF1 00              nop
8017   1FF2 00              nop
8018   1FF3 00              nop
8019   1FF4 00              nop
8020   1FF5 00              nop
8021   1FF6 00              nop
8022   1FF7 00              nop
8023   1FF8 00              nop
8024   1FF9 00              nop
8025   1FFA 00              nop
8026   1FFB 00              nop
8027   1FFC 00              nop
8028   1FFD 00              nop
8029   1FFE 00              nop
8030   1FFF 00              nop
8031   2000             
8032   2000             .END
tasm: Number of errors = 0
